 PciDumpList

 Timestamp is 62149a15 (Tue Feb 22 16:08:53 2022)

 Preferred load address is 0000000000000000

 Start         Length     Name                   Class
 0001:00000000 000018e6H .text                   CODE
 0002:00000000 00000000H .data                   DATA
 0002:00000000 00000ba0H .rdata                  DATA
 0002:00000ba0 00000020H .bss                    DATA
 0003:00000000 00000138H .pdata                  DATA
 0004:00000000 000000bcH .xdata                  DATA

  Address         Publics by Value              Rva+Base               Lib:Object

 0001:00000000       _ModuleEntryPoint          00000000000002a0 f   UefiApplicationEntryPoint:ApplicationEntryPoint.obj
 0001:00000064       ProcessLibraryConstructorList 0000000000000304 f   PciDumpList:AutoGen.obj
 0001:000001a4       ProcessModuleEntryPointList 0000000000000444 f   PciDumpList:AutoGen.obj
 0001:000001ac       UefiMain                   000000000000044c f   PciDumpList:PciDumpList.obj
 0001:000002ac       DebugPrint                 000000000000054c f   BaseDebugLibNull:DebugLib.obj
 0001:000002b8       ProcessLibraryDestructorList 0000000000000558 f   PciDumpList:AutoGen.obj
 0001:000002b8       DebugAssert                0000000000000558 f   BaseDebugLibNull:DebugLib.obj
 0001:000002bc       DebugPrintEnabled          000000000000055c f   BaseDebugLibNull:DebugLib.obj
 0001:000002bc       DebugAssertEnabled         000000000000055c f   BaseDebugLibNull:DebugLib.obj
 0001:000002bc       DebugPrintLevelEnabled     000000000000055c f   BaseDebugLibNull:DebugLib.obj
 0001:000002c0       UefiBootServicesTableLibConstructor 0000000000000560 f   UefiBootServicesTableLib:UefiBootServicesTableLib.obj
 0001:0000036c       UefiRuntimeServicesTableLibConstructor 000000000000060c f   UefiRuntimeServicesTableLib:UefiRuntimeServicesTableLib.obj
 0001:000003b0       PciRead32                  0000000000000650 f   BasePciLibCf8:PciLib.obj
 0001:000003b8       UefiLibConstructor         0000000000000658 f   UefiLib:UefiLib.obj
 0001:000003bc       InternalPrint              000000000000065c f   UefiLib:UefiLibPrint.obj
 0001:000004dc       Print                      000000000000077c f   UefiLib:UefiLibPrint.obj
 0001:0000050c       ReadUnaligned16            00000000000007ac f   BaseLib:Unaligned.obj
 0001:00000544       ReadUnaligned32            00000000000007e4 f   BaseLib:Unaligned.obj
 0001:0000057c       StrLen                     000000000000081c f   BaseLib:String.obj
 0001:00000634       StrSize                    00000000000008d4 f   BaseLib:String.obj
 0001:00000648       AsciiStrLen                00000000000008e8 f   BaseLib:String.obj
 0001:000006d0       AsciiStrSize               0000000000000970 f   BaseLib:String.obj
 0001:000006e4       InternalMathDivRemU64x32   0000000000000984 f   BaseLib:Math64.obj
 0001:00000700       InternalAllocatePool       00000000000009a0 f   UefiMemoryAllocationLib:MemoryAllocationLib.obj
 0001:0000072c       AllocatePool               00000000000009cc f   UefiMemoryAllocationLib:MemoryAllocationLib.obj
 0001:0000073c       FreePool                   00000000000009dc f   UefiMemoryAllocationLib:MemoryAllocationLib.obj
 0001:000007b0       UnicodeVSPrint             0000000000000a50 f   BasePrintLib:PrintLib.obj
 0001:00000854       BasePrintLibFillBuffer     0000000000000af4 f   BasePrintLib:PrintLibInternal.obj
 0001:00000888       BasePrintLibValueToString  0000000000000b28 f   BasePrintLib:PrintLibInternal.obj
 0001:000008d8       BasePrintLibSPrintMarker   0000000000000b78 f   BasePrintLib:PrintLibInternal.obj
 0001:000016cc       BasePrintLibSPrint         000000000000196c f   BasePrintLib:PrintLibInternal.obj
 0001:000016f0       PciCf8Read32               0000000000001990 f   BasePciCf8Lib:PciCf8Lib.obj
 0001:0000179c       DivU64x32Remainder         0000000000001a3c f   BaseLib:DivU64x32Remainder.obj
 0001:000017f4       SaveAndDisableInterrupts   0000000000001a94 f   BaseLib:Cpu.obj
 0001:00001810       SetInterruptState          0000000000001ab0 f   BaseLib:Cpu.obj
 0001:00001830       DisableInterrupts          0000000000001ad0 f   BaseLib:DisableInterrupts.obj
 0001:00001834       GetInterruptState          0000000000001ad4 f   BaseLib:X86GetInterruptState.obj
 0001:00001850       EnableInterrupts           0000000000001af0 f   BaseLib:EnableInterrupts.obj
 0001:00001860       AsmReadEflags              0000000000001b00 f   BaseLib:ReadEflags.obj
 0001:00001864       IoRead32                   0000000000001b04 f   BaseIoLibIntrinsic:IoLibMsc.obj
 0001:000018a0       IoWrite32                  0000000000001b40 f   BaseIoLibIntrinsic:IoLibMsc.obj
 0002:00000000       _gPcd_FixedAtBuild_PcdMaximumUnicodeStringLength 0000000000001ba0     PciDumpList:AutoGen.obj
 0002:00000000       _gPcd_FixedAtBuild_PcdMaximumAsciiStringLength 0000000000001ba0     PciDumpList:AutoGen.obj
 0002:00000004       _gPcd_FixedAtBuild_PcdUefiLibMaxPrintBufferSize 0000000000001ba4     PciDumpList:AutoGen.obj
 0002:00000008       _gUefiDriverRevision       0000000000001ba8     PciDumpList:AutoGen.obj
 0002:00000010       ??_C@_0FC@OLDIAHLI@q?3?2Build?2MyPkg?2RELEASE_DEVTLS?2X6@ 0000000000001bb0     PciDumpList:AutoGen.obj
 0002:00000068       ??_C@_0BE@DCHLEIGN@?$CBEFI_ERROR?5?$CIStatus?$CJ?$AA@ 0000000000001c08     PciDumpList:AutoGen.obj
 0002:00000080       ??_C@_0CB@DMEJJJHA@?6ASSERT_EFI_ERROR?5?$CIStatus?5?$DN?5?$CFr?$CJ?6@ 0000000000001c20     PciDumpList:AutoGen.obj
 0002:000000a8       ??_C@_1DI@JDCBJNEC@?$AA?$CF?$AA0?$AA2?$AAl?$AAx?$AA?5?$AA?5?$AA?5?$AA?5?$AA?$CF?$AA0?$AA2?$AAl?$AAx?$AA?5?$AA?5?$AA?5?$AA?5?$AA?5?$AA?5?$AA?5?$AA?$CF?$AA0?$AA2?$AAl?$AAx?$AA?6?$AA?$AA@ 0000000000001c48     PciDumpList:PciDumpList.obj
 0002:000000e0       ??_C@_1DC@IDFJKGGK@?$AA?$CF?$AAl?$AAx?$AA?5?$AA?5?$AA?5?$AA?5?$AA?5?$AA?5?$AA?5?$AA?5?$AA?5?$AA?$CF?$AAl?$AAx?$AA?5?$AA?5?$AA?5?$AA?5?$AA?5?$AA?5?$AA?5?$AA?5?$AA?5?$AA?$AA@ 0000000000001c80     PciDumpList:PciDumpList.obj
 0002:00000120       ??_C@_1GI@ICNGKPIL@?$AAD?$AAe?$AAv?$AAi?$AAc?$AAe?$AA?5?$AAI?$AAD?$AA?5?$AA?5?$AA?5?$AA?5?$AAV?$AAe?$AAn?$AAd?$AAo?$AAr?$AA?5?$AAI?$AAD?$AA?5?$AA?5?$AA?5?$AA?5?$AAB?$AAu?$AAs?$AA?$CD?$AA?5?$AA?5@ 0000000000001cc0     PciDumpList:PciDumpList.obj
 0002:00000188       ??_C@_0BE@BDFJLGLN@gBS?5?$CB?$DN?5?$CI?$CIvoid?5?$CK?$CJ?50?$CJ?$AA@ 0000000000001d28     UefiBootServicesTableLib:UefiBootServicesTableLib.obj
 0002:000001a0       ??_C@_0BE@DGNHAHIL@gST?5?$CB?$DN?5?$CI?$CIvoid?5?$CK?$CJ?50?$CJ?$AA@ 0000000000001d40     UefiBootServicesTableLib:UefiBootServicesTableLib.obj
 0002:000001c0       ??_C@_0EG@IHBEIGJL@q?3?2MdePkg?2Library?2UefiBootServic@ 0000000000001d60     UefiBootServicesTableLib:UefiBootServicesTableLib.obj
 0002:00000208       ??_C@_0BN@COECPDCC@gImageHandle?5?$CB?$DN?5?$CI?$CIvoid?5?$CK?$CJ?50?$CJ?$AA@ 0000000000001da8     UefiBootServicesTableLib:UefiBootServicesTableLib.obj
 0002:00000230       ??_C@_0EM@DLKNJEFG@q?3?2MdePkg?2Library?2UefiRuntimeSer@ 0000000000001dd0     UefiRuntimeServicesTableLib:UefiRuntimeServicesTableLib.obj
 0002:00000280       ??_C@_0BE@OBDFIHND@gRT?5?$CB?$DN?5?$CI?$CIvoid?5?$CK?$CJ?50?$CJ?$AA@ 0000000000001e20     UefiRuntimeServicesTableLib:UefiRuntimeServicesTableLib.obj
 0002:00000298       ??_C@_0BH@IACGKAP@Buffer?5?$CB?$DN?5?$CI?$CIvoid?5?$CK?$CJ?50?$CJ?$AA@ 0000000000001e38     UefiLib:UefiLibPrint.obj
 0002:000002b0       ??_C@_0BI@DIKLKBJC@Console?5?$CB?$DN?5?$CI?$CIvoid?5?$CK?$CJ?50?$CJ?$AA@ 0000000000001e50     UefiLib:UefiLibPrint.obj
 0002:000002c8       ??_C@_0CD@NJDNMGBE@?$CI?$CIUINTN?$CJ?5Format?5?$CG?50x00000001?$CJ?5?$DN?$DN@ 0000000000001e68     UefiLib:UefiLibPrint.obj
 0002:000002f0       ??_C@_0CJ@ICOLKBCP@q?3?2MdePkg?2Library?2UefiLib?2UefiLi@ 0000000000001e90     UefiLib:UefiLibPrint.obj
 0002:00000320       ??_C@_0BH@LKMBFCBF@Format?5?$CB?$DN?5?$CI?$CIvoid?5?$CK?$CJ?50?$CJ?$AA@ 0000000000001ec0     UefiLib:UefiLibPrint.obj
 0002:00000338       ??_C@_0CG@MHAECJIA@q?3?2MdePkg?2Library?2BaseLib?2Unalig@ 0000000000001ed8     BaseLib:Unaligned.obj
 0002:00000360       ??_C@_0DK@EOJCOAME@Length?5?$DM?5_gPcd_FixedAtBuild_PcdM@ 0000000000001f00     BaseLib:String.obj
 0002:000003a0       ??_C@_0CD@BDCLIGHD@?$CI?$CIUINTN?$CJ?5String?5?$CG?50x00000001?$CJ?5?$DN?$DN@ 0000000000001f40     BaseLib:String.obj
 0002:000003c8       ??_C@_0CD@OOJADBME@q?3?2MdePkg?2Library?2BaseLib?2String@ 0000000000001f68     BaseLib:String.obj
 0002:000003f0       ??_C@_0BH@MAAHKCPC@String?5?$CB?$DN?5?$CI?$CIvoid?5?$CK?$CJ?50?$CJ?$AA@ 0000000000001f90     BaseLib:String.obj
 0002:00000408       ??_C@_0DI@MDIKFADO@Length?5?$DM?5_gPcd_FixedAtBuild_PcdM@ 0000000000001fa8     BaseLib:String.obj
 0002:00000440       ??_C@_0N@KGHEHMDL@Divisor?5?$CB?$DN?50?$AA@ 0000000000001fe0     BaseLib:DivU64x32.obj
 0002:00000450       ??_C@_0EA@JCDEKIGH@q?3?2MdePkg?2Library?2UefiMemoryAllo@ 0000000000001ff0     UefiMemoryAllocationLib:MemoryAllocationLib.obj
 0002:00000490       ??_C@_0CH@KJLBGOBB@?$CI?$CI?$CIUINTN?$CJ?5?$CIFormatString?$CJ?$CJ?5?$CG?50x01@ 0000000000002030     BasePrintLib:PrintLib.obj
 0002:000004b8       ??_C@_0CK@LOLCLJPB@q?3?2MdePkg?2Library?2BasePrintLib?2P@ 0000000000002058     BasePrintLib:PrintLib.obj
 0002:000004e8       ??_C@_0CI@BGLNHBLM@?$CI?$CI?$CIUINTN?$CJ?5?$CIStartOfBuffer?$CJ?$CJ?5?$CG?50x0@ 0000000000002088     BasePrintLib:PrintLib.obj
 0002:00000510       ??_C@_0BB@MFGDFIJM@Compromised?5Data?$AA@ 00000000000020b0     BasePrintLib:PrintLibInternal.obj
 0002:00000528       ??_C@_0BB@KFJAMCOC@Invalid?5Language?$AA@ 00000000000020c8     BasePrintLib:PrintLibInternal.obj
 0002:00000540       ??_C@_0M@FKGOBENP@End?5of?5File?$AA@ 00000000000020e0     BasePrintLib:PrintLibInternal.obj
 0002:00000550       ??_C@_0O@GLPDOMCP@Reserved?5?$CI30?$CJ?$AA@ 00000000000020f0     BasePrintLib:PrintLibInternal.obj
 0002:00000560       ??_C@_0O@NMJOLAMF@Reserved?5?$CI29?$CJ?$AA@ 0000000000002100     BasePrintLib:PrintLibInternal.obj
 0002:00000570       ??_C@_0N@JEJDHPO@End?5of?5Media?$AA@ 0000000000002110     BasePrintLib:PrintLibInternal.obj
 0002:00000580       ??_C@_09BOMAGJEG@CRC?5Error?$AA@ 0000000000002120     BasePrintLib:PrintLibInternal.obj
 0002:00000590       ??_C@_0BD@KHMPCIOG@Security?5Violation?$AA@ 0000000000002130     BasePrintLib:PrintLibInternal.obj
 0002:000005a8       ??_C@_0BF@EHOBGFMI@Incompatible?5Version?$AA@ 0000000000002148     BasePrintLib:PrintLibInternal.obj
 0002:000005c0       ??_C@_0P@NCJHBCLM@Protocol?5Error?$AA@ 0000000000002160     BasePrintLib:PrintLibInternal.obj
 0002:000005d0       ??_C@_0L@DJKNJKHM@TFTP?5Error?$AA@ 0000000000002170     BasePrintLib:PrintLibInternal.obj
 0002:000005e0       ??_C@_0L@LKIFCMNO@ICMP?5Error?$AA@ 0000000000002180     BasePrintLib:PrintLibInternal.obj
 0002:000005f0       ??_C@_07LCKDCBKK@Aborted?$AA@ 0000000000002190     BasePrintLib:PrintLibInternal.obj
 0002:000005f8       ??_C@_0BA@IGIBFFPH@Already?5started?$AA@ 0000000000002198     BasePrintLib:PrintLibInternal.obj
 0002:00000608       ??_C@_0M@DCJFAFHJ@Not?5started?$AA@ 00000000000021a8     BasePrintLib:PrintLibInternal.obj
 0002:00000618       ??_C@_08PAFJCNGP@Time?5out?$AA@ 00000000000021b8     BasePrintLib:PrintLibInternal.obj
 0002:00000628       ??_C@_0L@IFPBNFC@No?5mapping?$AA@ 00000000000021c8     BasePrintLib:PrintLibInternal.obj
 0002:00000638       ??_C@_0M@ENKCBFEP@No?5Response?$AA@ 00000000000021d8     BasePrintLib:PrintLibInternal.obj
 0002:00000648       ??_C@_0O@NFHOBIDO@Access?5Denied?$AA@ 00000000000021e8     BasePrintLib:PrintLibInternal.obj
 0002:00000658       ??_C@_09CFCBFJND@Not?5Found?$AA@ 00000000000021f8     BasePrintLib:PrintLibInternal.obj
 0002:00000668       ??_C@_0O@JNCJKCCD@Media?5changed?$AA@ 0000000000002208     BasePrintLib:PrintLibInternal.obj
 0002:00000678       ??_C@_08KEGAJDNN@No?5Media?$AA@ 0000000000002218     BasePrintLib:PrintLibInternal.obj
 0002:00000688       ??_C@_0M@HDLEPOFA@Volume?5Full?$AA@ 0000000000002228     BasePrintLib:PrintLibInternal.obj
 0002:00000698       ??_C@_0P@EIOJGIF@Volume?5Corrupt?$AA@ 0000000000002238     BasePrintLib:PrintLibInternal.obj
 0002:000006a8       ??_C@_0BB@GOILNEAA@Out?5of?5Resources?$AA@ 0000000000002248     BasePrintLib:PrintLibInternal.obj
 0002:000006c0       ??_C@_0BA@LNEDDFNB@Write?5Protected?$AA@ 0000000000002260     BasePrintLib:PrintLibInternal.obj
 0002:000006d0       ??_C@_0N@HHEABDHO@Device?5Error?$AA@ 0000000000002270     BasePrintLib:PrintLibInternal.obj
 0002:000006e0       ??_C@_09NKFGCIPN@Not?5Ready?$AA@ 0000000000002280     BasePrintLib:PrintLibInternal.obj
 0002:000006f0       ??_C@_0BB@EGELJFOB@Buffer?5Too?5Small?$AA@ 0000000000002290     BasePrintLib:PrintLibInternal.obj
 0002:00000708       ??_C@_0BA@FLNMPMCF@Bad?5Buffer?5Size?$AA@ 00000000000022a8     BasePrintLib:PrintLibInternal.obj
 0002:00000718       ??_C@_0M@BEECMOIL@Unsupported?$AA@ 00000000000022b8     BasePrintLib:PrintLibInternal.obj
 0002:00000728       ??_C@_0BC@HOFHKGJN@Invalid?5Parameter?$AA@ 00000000000022c8     BasePrintLib:PrintLibInternal.obj
 0002:00000740       ??_C@_0L@PLPBEPPC@Load?5Error?$AA@ 00000000000022e0     BasePrintLib:PrintLibInternal.obj
 0002:00000750       ??_C@_0BD@IFJNJCCO@Warning?5Stale?5Data?$AA@ 00000000000022f0     BasePrintLib:PrintLibInternal.obj
 0002:00000768       ??_C@_0BJ@ODIPDGHB@Warning?5Buffer?5Too?5Small?$AA@ 0000000000002308     BasePrintLib:PrintLibInternal.obj
 0002:00000788       ??_C@_0BG@ECIJMOED@Warning?5Write?5Failure?$AA@ 0000000000002328     BasePrintLib:PrintLibInternal.obj
 0002:000007a0       ??_C@_0BH@GKKCJEPJ@Warning?5Delete?5Failure?$AA@ 0000000000002340     BasePrintLib:PrintLibInternal.obj
 0002:000007b8       ??_C@_0BG@CFJMNNJK@Warning?5Unknown?5Glyph?$AA@ 0000000000002358     BasePrintLib:PrintLibInternal.obj
 0002:000007d0       ??_C@_07PBILKAFL@Success?$AA@ 0000000000002370     BasePrintLib:PrintLibInternal.obj
 0002:000007d8       mHexStr                    0000000000002378     BasePrintLib:PrintLibInternal.obj
 0002:000007f0       mStatusString              0000000000002390     BasePrintLib:PrintLibInternal.obj
 0002:00000928       ??_C@_0DC@CHCEMEEB@q?3?2MdePkg?2Library?2BasePrintLib?2P@ 00000000000024c8     BasePrintLib:PrintLibInternal.obj
 0002:00000960       ??_C@_0EG@NFDMKACK@?$CI?$CI?$CIFlags?5?$CG?50x00000040?$CJ?5?$CB?$DN?50?$CJ?$CJ?5?$HM?$HM@ 0000000000002500     BasePrintLib:PrintLibInternal.obj
 0002:000009b0       ??_C@_0EM@FPGGOFNC@?$CI?$CI?$CIFlags?5?$CG?50x00000040?$CJ?5?$DN?$DN?50?$CJ?$CJ?5?$HM?$HM@ 0000000000002550     BasePrintLib:PrintLibInternal.obj
 0002:000009fc       ??_C@_01LIIJDEN@?$AN?$AA@  000000000000259c     BasePrintLib:PrintLibInternal.obj
 0002:00000a00       ??_C@_04JIMNDDED@?$CF08X?$AA@ 00000000000025a0     BasePrintLib:PrintLibInternal.obj
 0002:00000a08       ??_C@_0O@MLOLIMFM@?$DMnull?5string?$DO?$AA@ 00000000000025a8     BasePrintLib:PrintLibInternal.obj
 0002:00000a18       ??_C@_0BK@FCPKCIDD@?$CF02d?1?$CF02d?1?$CF04d?5?5?$CF02d?3?$CF02d?$AA@ 00000000000025b8     BasePrintLib:PrintLibInternal.obj
 0002:00000a38       ??_C@_0M@LHGBCIKM@?$DMnull?5time?$DO?$AA@ 00000000000025d8     BasePrintLib:PrintLibInternal.obj
 0002:00000a48       ??_C@_0DB@PMLHLBMO@?$CF08x?9?$CF04x?9?$CF04x?9?$CF02x?$CF02x?9?$CF02x?$CF02x@ 00000000000025e8     BasePrintLib:PrintLibInternal.obj
 0002:00000a80       ??_C@_0M@BJJDNPHK@?$DMnull?5guid?$DO?$AA@ 0000000000002620     BasePrintLib:PrintLibInternal.obj
 0002:00000a8c       ??_C@_02PCIJFNDE@?$AN?6?$AA@ 000000000000262c     BasePrintLib:PrintLibInternal.obj
 0002:00000a90       ??_C@_0BL@BFEFANFD@AsciiStrSize?5?$CIFormat?$CJ?5?$CB?$DN?50?$AA@ 0000000000002630     BasePrintLib:PrintLibInternal.obj
 0002:00000ab0       ??_C@_0CB@NIHAJGJE@StrSize?5?$CI?$CICHAR16?5?$CK?$CJ?5Format?$CJ?5?$CB?$DN?50@ 0000000000002650     BasePrintLib:PrintLibInternal.obj
 0002:00000ad8       ??_C@_0CM@EPNCIHKK@q?3?2MdePkg?2Library?2BasePciCf8Lib?2@ 0000000000002678     BasePciCf8Lib:PciCf8Lib.obj
 0002:00000b08       ??_C@_0CG@EDKLCMBO@?$CI?$CIAddress?$CJ?5?$CG?5?$CI?$HO0xffff0ff?5?$HM?5?$CI3?$CJ?$CJ?$CJ@ 00000000000026a8     BasePciCf8Lib:PciCf8Lib.obj
 0002:00000b30       ??_C@_0CP@CPEPIGGJ@q?3?2MdePkg?2Library?2BaseLib?2DivU64@ 00000000000026d0     BaseLib:DivU64x32Remainder.obj
 0002:00000b60       ??_C@_0DA@NKIBNOLC@q?3?2MdePkg?2Library?2BaseIoLibIntri@ 0000000000002700     BaseIoLibIntrinsic:IoLibMsc.obj
 0002:00000b90       ??_C@_0BA@HCECIDGN@?$CIPort?5?$CG?53?$CJ?5?$DN?$DN?50?$AA@ 0000000000002730     BaseIoLibIntrinsic:IoLibMsc.obj
 0002:00000ba0       gImageHandle               0000000000002740     UefiBootServicesTableLib:UefiBootServicesTableLib.obj
 0002:00000ba8       gST                        0000000000002748     UefiBootServicesTableLib:UefiBootServicesTableLib.obj
 0002:00000bb0       gBS                        0000000000002750     UefiBootServicesTableLib:UefiBootServicesTableLib.obj
 0002:00000bb8       gRT                        0000000000002758     UefiRuntimeServicesTableLib:UefiRuntimeServicesTableLib.obj

 entry point at        0001:00000000

 Static symbols

