 DisplayEngine

 Timestamp is 62133827 (Mon Feb 21 14:58:47 2022)

 Preferred load address is 00010000

 Start         Length     Name                   Class
 0001:00000000 0000b323H .text                   CODE
 0002:00000000 00001c2fH .rdata                  DATA
 0002:00001c30 0000008dH .rdata$debug            DATA
 0003:00000000 00001c7eH .data                   DATA
 0003:00001c80 000001e0H .bss                    DATA
 0004:00000000 00000055H .edata                  DATA

  Address         Publics by Value              Rva+Base       Lib:Object

 0001:00000000       __DriverUnloadHandler      00011000 f   UefiDriverEntryPoint:DriverEntryPoint.obj
 0001:00000045       __ModuleEntryPoint         00011045 f   UefiDriverEntryPoint:DriverEntryPoint.obj
 0001:000000bc       _ProcessLibraryConstructorList 000110bc f   DisplayEngine:AutoGen.obj
 0001:000002b5       _ProcessLibraryDestructorList 000112b5 f   DisplayEngine:AutoGen.obj
 0001:00000311       _GetToken                  00011311 f   DisplayEngine:FormDisplay.obj
 0001:0000035f       _InitializeDisplayStrings  0001135f f   DisplayEngine:FormDisplay.obj
 0001:0000064d       _FreeDisplayStrings        0001164d f   DisplayEngine:FormDisplay.obj
 0001:0000081a       _GetWidth                  0001181a f   DisplayEngine:FormDisplay.obj
 0001:000008f8       _GetLineByWidth            000118f8 f   DisplayEngine:FormDisplay.obj
 0001:00000a96       _UiAddMenuOption           00011a96 f   DisplayEngine:FormDisplay.obj
 0001:00000c9b       _ConvertStatementToMenu    00011c9b f   DisplayEngine:FormDisplay.obj
 0001:00000d90       _GetStringWidth            00011d90 f   DisplayEngine:FormDisplay.obj
 0001:00000e0b       _UpdateSkipInfoForMenu     00011e0b f   DisplayEngine:FormDisplay.obj
 0001:00000e80       _UpdateOptionSkipLines     00011e80 f   DisplayEngine:FormDisplay.obj
 0001:00000eec       _PrintableMenu             00011eec f   DisplayEngine:FormDisplay.obj
 0001:00000f7d       _IsSelectable              00011f7d f   DisplayEngine:FormDisplay.obj
 0001:00000fa6       _MoveToNextStatement       00011fa6 f   DisplayEngine:FormDisplay.obj
 0001:0000107c       _ProcessStringForDateTime  0001207c f   DisplayEngine:FormDisplay.obj
 0001:00001168       _AdjustDateAndTimePosition 00012168 f   DisplayEngine:FormDisplay.obj
 0001:0000121e       _GetHotKeyFromRegisterList 0001221e f   DisplayEngine:FormDisplay.obj
 0001:0000128a       _UiWaitForEvent            0001228a f   DisplayEngine:FormDisplay.obj
 0001:0000133e       _GetQuestionIdInfo         0001233e f   DisplayEngine:FormDisplay.obj
 0001:00001351       _FindTopOfScreenMenu       00012351 f   DisplayEngine:FormDisplay.obj
 0001:000013e5       _GetIndexInfoForOpcode     000123e5 f   DisplayEngine:FormDisplay.obj
 0001:00001460       _IsSavedHighlightStatement 00012460 f   DisplayEngine:FormDisplay.obj
 0001:000014de       _IsHighLightMenuOption     000124de f   DisplayEngine:FormDisplay.obj
 0001:0000154f       _FindHighLightMenuOption   0001254f f   DisplayEngine:FormDisplay.obj
 0001:00001614       _FindTopOfScreenMenuOption 00012614 f   DisplayEngine:FormDisplay.obj
 0001:000016e5       _FindTopMenu               000126e5 f   DisplayEngine:FormDisplay.obj
 0001:00001a01       _UpdateHighlightMenuInfo   00012a01 f   DisplayEngine:FormDisplay.obj
 0001:00001bb5       _SetDisplayAttribute       00012bb5 f   DisplayEngine:FormDisplay.obj
 0001:00001bea       _DisplayMenuString         00012bea f   DisplayEngine:FormDisplay.obj
 0001:00001c45       _HasOptionString           00012c45 f   DisplayEngine:FormDisplay.obj
 0001:00001ca8       _FxConfirmPopup            00012ca8 f   DisplayEngine:FormDisplay.obj
 0001:00001ee2       _DisplayOneMenu            00012ee2 f   DisplayEngine:FormDisplay.obj
 0001:000022dd       _UiDisplayMenu             000132dd f   DisplayEngine:FormDisplay.obj
 0001:00003a0d       _BrowserStatusProcess      00014a0d f   DisplayEngine:FormDisplay.obj
 0001:00003de1       _FormDisplay               00014de1 f   DisplayEngine:FormDisplay.obj
 0001:00003f09       _DriverClearDisplayPage    00014f09 f   DisplayEngine:FormDisplay.obj
 0001:00003f35       _SetUnicodeMem             00014f35 f   DisplayEngine:FormDisplay.obj
 0001:00003f35       _LibSetUnicodeMem          00014f35 f   CustomizedDisplayLib:CustomizedDisplayLibInternal.obj
 0001:00003f54       _InitializeDisplayEngine   00014f54 f   DisplayEngine:FormDisplay.obj
 0001:0000409d       _NewStrCat                 0001509d f   DisplayEngine:ProcessOptions.obj
 0001:000040cc       _HiiValueToUINT64          000150cc f   DisplayEngine:ProcessOptions.obj
 0001:000040ff       _GetBufAndLenForValue      000150ff f   DisplayEngine:ProcessOptions.obj
 0001:0000413a       _CompareHiiValue           0001513a f   DisplayEngine:ProcessOptions.obj
 0001:000042be       _ValueToOption             000152be f   DisplayEngine:ProcessOptions.obj
 0001:00004374       _GetArrayData              00015374 f   DisplayEngine:ProcessOptions.obj
 0001:000043bf       _SetArrayData              000153bf f   DisplayEngine:ProcessOptions.obj
 0001:00004418       _FindArrayData             00015418 f   DisplayEngine:ProcessOptions.obj
 0001:000044aa       _PrintFormattedNumber      000154aa f   DisplayEngine:ProcessOptions.obj
 0001:00004523       _CreateSharedPopUp         00015523 f   DisplayEngine:ProcessOptions.obj
 0001:000046ef       _CreateMultiStringPopUp    000156ef f   DisplayEngine:ProcessOptions.obj
 0001:00004706       _EmptyEventProcess         00015706 f   DisplayEngine:ProcessOptions.obj
 0001:00004707       _RefreshTimeOutProcess     00015707 f   DisplayEngine:ProcessOptions.obj
 0001:0000476f       _PasswordProcess           0001576f f   DisplayEngine:ProcessOptions.obj
 0001:00004989       _ProcessOptions            00015989 f   DisplayEngine:ProcessOptions.obj
 0001:00005543       _ProcessHelpString         00016543 f   DisplayEngine:ProcessOptions.obj
 0001:0000565b       _ReadString                0001665b f   DisplayEngine:InputHandler.obj
 0001:00005cd1       _AdjustQuestionValue       00016cd1 f   DisplayEngine:InputHandler.obj
 0001:00005d4c       _GetValueFromNum           00016d4c f   DisplayEngine:InputHandler.obj
 0001:00005eaf       _GetNumericInput           00016eaf f   DisplayEngine:InputHandler.obj
 0001:00006a0c       _AdjustOptionOrder         00017a0c f   DisplayEngine:InputHandler.obj
 0001:00006b44       _SetValuesByType           00017b44 f   DisplayEngine:InputHandler.obj
 0001:00006b8c       _GetSelectionInputPopUp    00017b8c f   DisplayEngine:InputHandler.obj
 0001:000074d5       _InternalSafeStringNoStrOverlap 000184d5 f   BaseLib:SafeString.obj
 0001:000074fd       _InternalSafeStringNoAsciiStrOverlap 000184fd f   BaseLib:SafeString.obj
 0001:00007521       _StrnLenS                  00018521 f   BaseLib:SafeString.obj
 0001:0000755e       _StrCpyS                   0001855e f   BaseLib:SafeString.obj
 0001:00007676       _StrnCpyS                  00018676 f   BaseLib:SafeString.obj
 0001:000077aa       _StrCatS                   000187aa f   BaseLib:SafeString.obj
 0001:000078fb       _AsciiStrnLenS             000188fb f   BaseLib:SafeString.obj
 0001:00007915       _AsciiStrCpyS              00018915 f   BaseLib:SafeString.obj
 0001:000079d0       _StrLen                    000189d0 f   BaseLib:String.obj
 0001:00007a3b       _StrCmp                    00018a3b f   BaseLib:String.obj
 0001:00007aac       _AsciiStrLen               00018aac f   BaseLib:String.obj
 0001:00007af9       _AsciiStrnCmp              00018af9 f   BaseLib:String.obj
 0001:00007b8c       _InternalBaseLibIsNodeInList 00018b8c f   BaseLib:LinkedList.obj
 0001:00007c14       _InsertHeadList            00018c14 f   BaseLib:LinkedList.obj
 0001:00007c49       _InsertTailList            00018c49 f   BaseLib:LinkedList.obj
 0001:00007c7f       _GetFirstNode              00018c7f f   BaseLib:LinkedList.obj
 0001:00007ca8       _GetNextNode               00018ca8 f   BaseLib:LinkedList.obj
 0001:00007ccf       _IsListEmpty               00018ccf f   BaseLib:LinkedList.obj
 0001:00007cfb       _IsNull                    00018cfb f   BaseLib:LinkedList.obj
 0001:00007d2e       _SwapListEntries           00018d2e f   BaseLib:LinkedList.obj
 0001:00007d9b       _RemoveEntryList           00018d9b f   BaseLib:LinkedList.obj
 0001:00007dd1       _LShiftU64                 00018dd1 f   BaseLib:LShiftU64.obj
 0001:00007df5       _CompareMem                00018df5 f   BaseMemoryLibOptDxe:CompareMemWrapper.obj
 0001:00007e7c       _CopyGuid                  00018e7c f   BaseMemoryLibOptDxe:MemLibGuid.obj
 0001:00007ea6       _CompareGuid               00018ea6 f   BaseMemoryLibOptDxe:MemLibGuid.obj
 0001:00007f02       _CopyMem                   00018f02 f   BaseMemoryLibOptDxe:CopyMemWrapper.obj
 0001:00007f5b       _ZeroMem                   00018f5b f   BaseMemoryLibOptDxe:ZeroMemWrapper.obj
 0001:00007fa1       _DebugPrint                00018fa1 f   PeiDxeDebugLibReportStatusCode:DebugLib.obj
 0001:00008119       _DebugAssert               00019119 f   PeiDxeDebugLibReportStatusCode:DebugLib.obj
 0001:000081d9       _InternalAllocatePool      000191d9 f   UefiMemoryAllocationLib:MemoryAllocationLib.obj
 0001:000081fe       _InternalAllocateZeroPool  000191fe f   UefiMemoryAllocationLib:MemoryAllocationLib.obj
 0001:00008219       _InternalAllocateCopyPool  00019219 f   UefiMemoryAllocationLib:MemoryAllocationLib.obj
 0001:00008279       _FreePool                  00019279 f   UefiMemoryAllocationLib:MemoryAllocationLib.obj
 0001:000082b2       _UnicodeVSPrint            000192b2 f   BasePrintLib:PrintLib.obj
 0001:00008309       _UnicodeSPrint             00019309 f   BasePrintLib:PrintLib.obj
 0001:00008323       _BasePrintLibFillBuffer    00019323 f   BasePrintLib:PrintLibInternal.obj
 0001:0000834f       _BasePrintLibValueToString 0001934f f   BasePrintLib:PrintLibInternal.obj
 0001:000083ad       _BasePrintLibSPrintMarker  000193ad f   BasePrintLib:PrintLibInternal.obj
 0001:00008e37       _BasePrintLibSPrint        00019e37 f   BasePrintLib:PrintLibInternal.obj
 0001:00008e56       _GetVariable2              00019e56 f   UefiLib:UefiLib.obj
 0001:00008f01       _GetBestLanguage           00019f01 f   UefiLib:UefiLib.obj
 0001:0000900e       _HobLibConstructor         0001a00e f   DxeHobLib:HobLib.obj
 0001:000090ac       _GetHobList                0001a0ac f   DxeHobLib:HobLib.obj
 0001:000090cf       _GetNextHob                0001a0cf f   DxeHobLib:HobLib.obj
 0001:0000910e       _GetDebugPrintErrorLevel   0001a10e f   DxeDebugPrintErrorLevelLib:DxeDebugPrintErrorLevelLib.obj
 0001:000091fc       _GetDebugMask              0001a1fc f   DxeDebugPrintErrorLevelLib:DxeDebugPrintErrorLevelLib.obj
 0001:00009215       _SetDebugMask              0001a215 f   DxeDebugPrintErrorLevelLib:DxeDebugPrintErrorLevelLib.obj
 0001:00009221       _UefiHiiServicesLibConstructor 0001a221 f   UefiHiiServicesLib:UefiHiiServicesLib.obj
 0001:0000930a       _HiiAddPackages            0001a30a f   UefiHiiLib:HiiLib.obj
 0001:000093ea       _HiiRemovePackages         0001a3ea f   UefiHiiLib:HiiLib.obj
 0001:00009442       _HiiSetString              0001a442 f   UefiHiiLib:HiiString.obj
 0001:0000952c       _HiiGetString              0001a52c f   UefiHiiLib:HiiString.obj
 0001:00009635       _HiiGetSupportedLanguages  0001a635 f   UefiHiiLib:HiiLanguage.obj
 0001:000096b0       _DisplayPageFrame          0001a6b0 f   CustomizedDisplayLib:CustomizedDisplayLib.obj
 0001:000097a9       _RefreshKeyHelp            0001a7a9 f   CustomizedDisplayLib:CustomizedDisplayLib.obj
 0001:00009cbb       _UpdateStatusBar           0001acbb f   CustomizedDisplayLib:CustomizedDisplayLib.obj
 0001:00009dff       _CreateDialog              0001adff f   CustomizedDisplayLib:CustomizedDisplayLib.obj
 0001:0000a0b2       _ConfirmDataChange         0001b0b2 f   CustomizedDisplayLib:CustomizedDisplayLib.obj
 0001:0000a141       _PrintStringAt             0001b141 f   CustomizedDisplayLib:CustomizedDisplayLib.obj
 0001:0000a15d       _PrintStringAtWithWidth    0001b15d f   CustomizedDisplayLib:CustomizedDisplayLib.obj
 0001:0000a17d       _PrintCharAt               0001b17d f   CustomizedDisplayLib:CustomizedDisplayLib.obj
 0001:0000a19b       _ClearLines                0001b19b f   CustomizedDisplayLib:CustomizedDisplayLib.obj
 0001:0000a21e       _PrintBannerInfo           0001b21e f   CustomizedDisplayLib:CustomizedDisplayLibInternal.obj
 0001:0000a34a       _PrintFramework            0001b34a f   CustomizedDisplayLib:CustomizedDisplayLibInternal.obj
 0001:0000a5b6       _ProcessUserOpcode         0001b5b6 f   CustomizedDisplayLib:CustomizedDisplayLibInternal.obj
 0001:0000a6b2       _ProcessExternedOpcode     0001b6b2 f   CustomizedDisplayLib:CustomizedDisplayLibInternal.obj
 0001:0000a7e5       _ScreenDiemensionInfoValidate 0001b7e5 f   CustomizedDisplayLib:CustomizedDisplayLibInternal.obj
 0001:0000a8bc       _LibGetToken               0001b8bc f   CustomizedDisplayLib:CustomizedDisplayLibInternal.obj
 0001:0000a90a       _LibGetStringWidth         0001b90a f   CustomizedDisplayLib:CustomizedDisplayLibInternal.obj
 0001:0000a985       _PrintHotKeyHelpString     0001b985 f   CustomizedDisplayLib:CustomizedDisplayLibInternal.obj
 0001:0000ab0f       _InitializeLibStrings      0001bb0f f   CustomizedDisplayLib:CustomizedDisplayLibInternal.obj
 0001:0000acbc       _FreeLibStrings            0001bcbc f   CustomizedDisplayLib:CustomizedDisplayLibInternal.obj
 0001:0000ad94       _WaitForKeyStroke          0001bd94 f   CustomizedDisplayLib:CustomizedDisplayLibInternal.obj
 0001:0000add5       _PrintInternal             0001bdd5 f   CustomizedDisplayLib:CustomizedDisplayLibInternal.obj
 0001:0000af95       _PrintAt                   0001bf95 f   CustomizedDisplayLib:CustomizedDisplayLibInternal.obj
 0001:0000afbe       _InternalGetReportStatusCode 0001bfbe f   DxeReportStatusCodeLib:ReportStatusCodeLib.obj
 0001:0000aff7       _InternalReportStatusCode  0001bff7 f   DxeReportStatusCodeLib:ReportStatusCodeLib.obj
 0001:0000b029       _ReportStatusCodeEx        0001c029 f   DxeReportStatusCodeLib:ReportStatusCodeLib.obj
 0001:0000b17f       _ReadUnaligned16           0001c17f f   BaseLib:Unaligned.obj
 0001:0000b19b       _ReadUnaligned32           0001c19b f   BaseLib:Unaligned.obj
 0001:0000b1b9       _ReadUnaligned64           0001c1b9 f   BaseLib:Unaligned.obj
 0001:0000b1da       _WriteUnaligned64          0001c1da f   BaseLib:Unaligned.obj
 0001:0000b210       _InternalMemCompareMem     0001c210 f   BaseMemoryLibOptDxe:CompareMem.obj
 0001:0000b230       _InternalMemCopyMem        0001c230 f   BaseMemoryLibOptDxe:CopyMem.obj
 0001:0000b2a0       _InternalMemZeroMem        0001c2a0 f   BaseMemoryLibOptDxe:ZeroMem.obj
 0001:0000b2c0       _InternalMemSetMem         0001c2c0 f   BaseMemoryLibOptDxe:SetMem.obj
 0001:0000b2ec       _InternalMemSetMem32       0001c2ec f   BaseMemoryLibOptDxe:SetMem32.obj
 0001:0000b304       _InternalMemSetMem64       0001c304 f   BaseMemoryLibOptDxe:SetMem64.obj
 0002:0000001c       ??_C@_0CB@DMEJJJHA@?6ASSERT_EFI_ERROR?5?$CIStatus?5?$DN?5?$CFr?$CJ?6@ 0001d01c     UefiDriverEntryPoint:DriverEntryPoint.obj
 0002:00000040       ??_C@_0BE@DCHLEIGN@?$CBEFI_ERROR?5?$CIStatus?$CJ?$AA@ 0001d040     UefiDriverEntryPoint:DriverEntryPoint.obj
 0002:00000054       ??_C@_0DK@LAIDJKKD@q?3?2MdePkg?2Library?2UefiDriverEntr@ 0001d054     UefiDriverEntryPoint:DriverEntryPoint.obj
 0002:00000090       __gPcd_FixedAtBuild_PcdFrontPageFormSetGuid 0001d090     DisplayEngine:AutoGen.obj
 0002:000000a0       ??_C@_0GN@DOJCINMO@q?3?2Build?2NT32IA32?2DEBUG_DEVTLS?2I@ 0001d0a0     DisplayEngine:AutoGen.obj
 0002:00000110       __gUefiDriverRevision      0001d110     DisplayEngine:AutoGen.obj
 0002:00000114       ??_C@_0BH@MAAHKCPC@String?5?$CB?$DN?5?$CI?$CIvoid?5?$CK?$CJ?50?$CJ?$AA@ 0001d114     DisplayEngine:FormDisplay.obj
 0002:0000012c       ??_C@_0DJ@IBFEDBDJ@q?3?2MdeModulePkg?2Universal?2Displa@ 0001d12c     DisplayEngine:FormDisplay.obj
 0002:00000168       ??_C@_0O@BOALFJLA@PromptId?5?$CB?$DN?50?$AA@ 0001d168     DisplayEngine:FormDisplay.obj
 0002:00000178       ??_C@_0L@IFJDCMOO@MenuOption?$AA@ 0001d178     DisplayEngine:FormDisplay.obj
 0002:00000184       ??_C@_0BF@NDBIKIKC@CR?5has?5Bad?5Signature?$AA@ 0001d184     DisplayEngine:FormDisplay.obj
 0002:0000019c       ??_C@_0BN@FIEBDFGF@OptionString?5?$CB?$DN?5?$CI?$CIvoid?5?$CK?$CJ?50?$CJ?$AA@ 0001d19c     DisplayEngine:FormDisplay.obj
 0002:000001bc       ??_C@_0DL@JHBACIIB@MenuOption?5?$CB?$DN?5?$CI?$CIvoid?5?$CK?$CJ?50?$CJ?5?$CG?$CG?5Op@ 0001d1bc     DisplayEngine:FormDisplay.obj
 0002:000001f8       ??_C@_0BO@JDMAKKHP@Timeout?5?$CB?$DN?50?5?$CG?$CG?5EventNum?5?$DN?$DN?52?$AA@ 0001d1f8     DisplayEngine:FormDisplay.obj
 0002:00000218       ??_C@_0BM@MDDGLKPF@Index?5?$DN?$DN?52?5?$CG?$CG?5EventNum?5?$DN?$DN?53?$AA@ 0001d218     DisplayEngine:FormDisplay.obj
 0002:00000234       ??_C@_0BH@MHNEAHCE@NewPos?5?$CB?$DN?5?$CGgMenuOption?$AA@ 0001d234     DisplayEngine:FormDisplay.obj
 0002:0000024c       ??_C@_0BP@DKHOIAOI@?$CKHighlightMenu?5?$CB?$DN?5?$CI?$CIvoid?5?$CK?$CJ?50?$CJ?$AA@ 0001d24c     DisplayEngine:FormDisplay.obj
 0002:0000026c       ??_C@_0CN@CLCKLAMG@gHighligthMenuInfo?4HLTOpCode?5?$CB?$DN?5@ 0001d26c     DisplayEngine:FormDisplay.obj
 0002:0000029c       ??_C@_0CN@PKDANBPI@gHighligthMenuInfo?4TOSOpCode?5?$CB?$DN?5@ 0001d29c     DisplayEngine:FormDisplay.obj
 0002:000002cc       ??_C@_11LOCGONAA@?$AA?$AA@ 0001d2cc     DisplayEngine:FormDisplay.obj
 0002:000002d0       ??_C@_0BH@EIACHMCM@CfmStr?5?$CB?$DN?5?$CI?$CIvoid?5?$CK?$CJ?50?$CJ?$AA@ 0001d2d0     DisplayEngine:FormDisplay.obj
 0002:000002e8       ??_C@_0BL@MGMMPOHB@MenuOption?5?$CB?$DN?5?$CI?$CIvoid?5?$CK?$CJ?50?$CJ?$AA@ 0001d2e8     DisplayEngine:FormDisplay.obj
 0002:00000304       ??_C@_0BE@LNJPNPCM@HelpHeaderLine?5?$DN?$DN?51?$AA@ 0001d304     DisplayEngine:FormDisplay.obj
 0002:00000318       ??_C@_0EG@DECCKOBD@GetStringWidth?5?$CIHelpHeaderString@ 0001d318     DisplayEngine:FormDisplay.obj
 0002:00000360       ??_C@_0BE@KPAMDEKB@HelpBottomLine?5?$DN?$DN?51?$AA@ 0001d360     DisplayEngine:FormDisplay.obj
 0002:00000378       ??_C@_0EG@LAABIDIP@GetStringWidth?5?$CIHelpBottomString@ 0001d378     DisplayEngine:FormDisplay.obj
 0002:000003c0       ??_C@_0BH@CFJDGJFI@HotKey?5?$CB?$DN?5?$CI?$CIvoid?5?$CK?$CJ?50?$CJ?$AA@ 0001d3c0     DisplayEngine:FormDisplay.obj
 0002:000003d8       ??_C@_0BH@JJHAJIOH@NewPos?5?$CB?$DN?5?$CI?$CIvoid?5?$CK?$CJ?50?$CJ?$AA@ 0001d3d8     DisplayEngine:FormDisplay.obj
 0002:000003f0       ??_C@_0DH@IENGLGJH@OpCodeBuf?5?$CB?$DN?5?$CI?$CIvoid?5?$CK?$CJ?50?$CJ?5?$CG?$CG?5OpC@ 0001d3f0     DisplayEngine:FormDisplay.obj
 0002:00000428       ??_C@_0BL@MCKCEPCD@gUserInput?5?$CB?$DN?5?$CI?$CIvoid?5?$CK?$CJ?50?$CJ?$AA@ 0001d428     DisplayEngine:FormDisplay.obj
 0002:00000444       ??_C@_0BJ@PJGKOGBG@FormData?5?$CB?$DN?5?$CI?$CIvoid?5?$CK?$CJ?50?$CJ?$AA@ 0001d444     DisplayEngine:FormDisplay.obj
 0002:00000460       ??_C@_0BL@NCJOJLEB@gHiiHandle?5?$CB?$DN?5?$CI?$CIvoid?5?$CK?$CJ?50?$CJ?$AA@ 0001d460     DisplayEngine:FormDisplay.obj
 0002:0000047c       ??_C@_0BK@HACKOMPP@NewString?5?$CB?$DN?5?$CI?$CIvoid?5?$CK?$CJ?50?$CJ?$AA@ 0001d47c     DisplayEngine:FormDisplay.obj
 0002:00000498       ??_C@_0DM@JMENLLII@q?3?2MdeModulePkg?2Universal?2Displa@ 0001d498     DisplayEngine:ProcessOptions.obj
 0002:000004d4       ??_C@_0BG@KEJHFGFH@Array?5?$CB?$DN?5?$CI?$CIvoid?5?$CK?$CJ?50?$CJ?$AA@ 0001d4d4     DisplayEngine:ProcessOptions.obj
 0002:000004ec       ??_C@_19NMDCNMKO@?$AA?9?$AA?$CF?$AAl?$AAd?$AA?$AA@ 0001d4ec     DisplayEngine:ProcessOptions.obj
 0002:000004f8       ??_C@_17OADJODNB@?$AA?$CF?$AAl?$AAd?$AA?$AA@ 0001d4f8     DisplayEngine:ProcessOptions.obj
 0002:00000500       ??_C@_17PKPGALPG@?$AA?$CF?$AAl?$AAx?$AA?$AA@ 0001d500     DisplayEngine:ProcessOptions.obj
 0002:00000508       ??_C@_15KNBIKKIN@?$AA?$CF?$AAd?$AA?$AA@ 0001d508     DisplayEngine:ProcessOptions.obj
 0002:00000510       ??_C@_09IPFCLGON@StringPtr?$AA@ 0001d510     DisplayEngine:ProcessOptions.obj
 0002:0000051c       ??_C@_0L@EFOKHEHD@TempString?$AA@ 0001d51c     DisplayEngine:ProcessOptions.obj
 0002:00000528       ??_C@_0O@IFFFLPLH@?$CKOptionString?$AA@ 0001d528     DisplayEngine:ProcessOptions.obj
 0002:00000538       ??_C@_0BL@PFKPELIK@ValueArray?5?$CB?$DN?5?$CI?$CIvoid?5?$CK?$CJ?50?$CJ?$AA@ 0001d538     DisplayEngine:ProcessOptions.obj
 0002:00000554       ??_C@_0BK@OHHEMHCC@StringPtr?5?$CB?$DN?5?$CI?$CIvoid?5?$CK?$CJ?50?$CJ?$AA@ 0001d554     DisplayEngine:ProcessOptions.obj
 0002:00000570       ??_C@_0BC@FEDIJHFF@?$CI?$CIBOOLEAN?$CJ?$CI0?$DN?$DN1?$CJ?$CJ?$AA@ 0001d570     DisplayEngine:ProcessOptions.obj
 0002:00000584       ??_C@_15BDFJADND@?$AA?$DP?$AA?$DP?$AA?$AA@ 0001d584     DisplayEngine:ProcessOptions.obj
 0002:0000058c       ??_C@_19MNDKMKJC@?$AA?$CF?$AA0?$AA2?$AAd?$AA?$AA@ 0001d58c     DisplayEngine:ProcessOptions.obj
 0002:00000598       ??_C@_19IEAEFCGC@?$AA?$DP?$AA?$DP?$AA?$DP?$AA?$DP?$AA?$AA@ 0001d598     DisplayEngine:ProcessOptions.obj
 0002:000005a4       ??_C@_19BLGDCJIP@?$AA?$CF?$AA0?$AA4?$AAd?$AA?$AA@ 0001d5a4     DisplayEngine:ProcessOptions.obj
 0002:000005b0       ??_C@_0CB@FFCAMKBE@?$CKFormattedString?5?$CB?$DN?5?$CI?$CIvoid?5?$CK?$CJ?50?$CJ@ 0001d5b0     DisplayEngine:ProcessOptions.obj
 0002:000005d4       ??_C@_0DK@CJBALFA@q?3?2MdeModulePkg?2Universal?2Displa@ 0001d5d4     DisplayEngine:InputHandler.obj
 0002:00000610       ??_C@_0P@PDMJIOFD@BufferedString?$AA@ 0001d610     DisplayEngine:InputHandler.obj
 0002:00000620       ??_C@_0CB@IJCHBAJG@Question?9?$DOOpCode?9?$DOOpCode?5?$DN?$DN?50x07@ 0001d620     DisplayEngine:InputHandler.obj
 0002:00000644       ??_C@_0BE@HCEBPOGJ@InputWidth?5?$CL?52?5?$DM?524?$AA@ 0001d644     DisplayEngine:InputHandler.obj
 0002:00000658       ??_C@_0O@GHOKFFIC@EraseLen?5?$DO?$DN?52?$AA@ 0001d658     DisplayEngine:InputHandler.obj
 0002:00000668       ??_C@_0O@EMMHAGEB@EraseLen?5?$DO?$DN?51?$AA@ 0001d668     DisplayEngine:InputHandler.obj
 0002:00000678       ??_C@_13HOIJIPNN@?$AA?5?$AA?$AA@ 0001d678     DisplayEngine:InputHandler.obj
 0002:0000067c       ??_C@_0DN@MNPHGHMF@Count?5?$DM?5sizeof?5?$CIPreviousNumber?$CJ?5@ 0001d67c     DisplayEngine:InputHandler.obj
 0002:000006bc       ??_C@_0DP@GJDNCJMJ@Count?5?$DM?5?$CIsizeof?5?$CIPreviousNumber?$CJ@ 0001d6bc     DisplayEngine:InputHandler.obj
 0002:000006fc       ??_C@_0BO@PFDGAAML@HiiValueArray?5?$CB?$DN?5?$CI?$CIvoid?5?$CK?$CJ?50?$CJ?$AA@ 0001d6fc     DisplayEngine:InputHandler.obj
 0002:0000071c       ??_C@_0BO@FEDJMLCM@TempStringPtr?5?$CB?$DN?5?$CI?$CIvoid?5?$CK?$CJ?50?$CJ?$AA@ 0001d71c     DisplayEngine:InputHandler.obj
 0002:0000073c       ??_C@_17LGKOMLJ@?$AA?4?$AA?4?$AA?4?$AA?$AA@ 0001d73c     DisplayEngine:InputHandler.obj
 0002:00000744       ??_C@_0BO@KCDJJCJE@CurrentOption?5?$CB?$DN?5?$CI?$CIvoid?5?$CK?$CJ?50?$CJ?$AA@ 0001d744     DisplayEngine:InputHandler.obj
 0002:00000764       ??_C@_0BM@HHHFMHHK@ReturnValue?5?$CB?$DN?5?$CI?$CIvoid?5?$CK?$CJ?50?$CJ?$AA@ 0001d764     DisplayEngine:InputHandler.obj
 0002:00000780       ??_C@_0CD@BDCLIGHD@?$CI?$CIUINTN?$CJ?5String?5?$CG?50x00000001?$CJ?5?$DN?$DN@ 0001d780     BaseLib:SafeString.obj
 0002:000007a4       ??_C@_0CH@OOIJJKEI@q?3?2MdePkg?2Library?2BaseLib?2SafeSt@ 0001d7a4     BaseLib:SafeString.obj
 0002:000007cc       ??_C@_0CI@LLKACKFD@?$CI?$CIUINTN?$CJ?5Destination?5?$CG?50x0000000@ 0001d7cc     BaseLib:SafeString.obj
 0002:000007f4       ??_C@_0CD@COCJPGE@?$CI?$CIUINTN?$CJ?5Source?5?$CG?50x00000001?$CJ?5?$DN?$DN@ 0001d7f4     BaseLib:SafeString.obj
 0002:00000818       ??_C@_0BO@ECNIOIHG@?$CIDestination?5?$CB?$DN?5?$CI?$CIvoid?5?$CK?$CJ?50?$CJ?$CJ?$AA@ 0001d818     BaseLib:SafeString.obj
 0002:00000838       ??_C@_0BJ@EAEEJIP@?$CISource?5?$CB?$DN?5?$CI?$CIvoid?5?$CK?$CJ?50?$CJ?$CJ?$AA@ 0001d838     BaseLib:SafeString.obj
 0002:00000858       ??_C@_0EA@BBALOHPI@?$CIDestMax?5?$DM?$DN?5?$CI_gPcd_FixedAtBuild_@ 0001d858     BaseLib:SafeString.obj
 0002:00000898       ??_C@_0P@PMIMLIHM@?$CIDestMax?5?$CB?$DN?50?$CJ?$AA@ 0001d898     BaseLib:SafeString.obj
 0002:000008a8       ??_C@_0BG@EEGIIOKH@?$CIDestMax?5?$DO?5SourceLen?$CJ?$AA@ 0001d8a8     BaseLib:SafeString.obj
 0002:000008c0       ??_C@_0FH@PPBLBDBJ@InternalSafeStringNoStrOverlap?5?$CI@ 0001d8c0     BaseLib:SafeString.obj
 0002:00000918       ??_C@_0P@BHOOOJPD@?$CICopyLen?5?$CB?$DN?50?$CJ?$AA@ 0001d918     BaseLib:SafeString.obj
 0002:00000928       ??_C@_0BG@BPGICNPK@?$CICopyLen?5?$DO?5SourceLen?$CJ?$AA@ 0001d928     BaseLib:SafeString.obj
 0002:00000940       ??_C@_0FL@CDANCHFO@InternalSafeStringNoAsciiStrOver@ 0001d940     BaseLib:SafeString.obj
 0002:0000099c       ??_C@_0CD@OOJADBME@q?3?2MdePkg?2Library?2BaseLib?2String@ 0001d99c     BaseLib:String.obj
 0002:000009c0       ??_C@_0DK@EOJCOAME@Length?5?$DM?5_gPcd_FixedAtBuild_PcdM@ 0001d9c0     BaseLib:String.obj
 0002:000009fc       ??_C@_0BL@JAAMOCAJ@StrSize?5?$CIFirstString?$CJ?5?$CB?$DN?50?$AA@ 0001d9fc     BaseLib:String.obj
 0002:00000a18       ??_C@_0BM@DALBOILC@StrSize?5?$CISecondString?$CJ?5?$CB?$DN?50?$AA@ 0001da18     BaseLib:String.obj
 0002:00000a34       ??_C@_0DJ@JJHGIFMP@Length?5?$DM?$DN?5_gPcd_FixedAtBuild_Pcd@ 0001da34     BaseLib:String.obj
 0002:00000a70       ??_C@_0DI@MDIKFADO@Length?5?$DM?5_gPcd_FixedAtBuild_PcdM@ 0001da70     BaseLib:String.obj
 0002:00000aa8       ??_C@_0BL@IKFBNFIL@AsciiStrSize?5?$CIFirstString?$CJ?$AA@ 0001daa8     BaseLib:String.obj
 0002:00000ac4       ??_C@_0BM@EDNOKLLE@AsciiStrSize?5?$CISecondString?$CJ?$AA@ 0001dac4     BaseLib:String.obj
 0002:00000ae0       ??_C@_0BF@NJNGJMPC@List?5?$CB?$DN?5?$CI?$CIvoid?5?$CK?$CJ?50?$CJ?$AA@ 0001dae0     BaseLib:LinkedList.obj
 0002:00000af8       ??_C@_0CH@NMOILDJB@q?3?2MdePkg?2Library?2BaseLib?2Linked@ 0001daf8     BaseLib:LinkedList.obj
 0002:00000b20       ??_C@_0CC@KDLPLAED@List?9?$DOForwardLink?5?$CB?$DN?5?$CI?$CIvoid?5?$CK?$CJ?50@ 0001db20     BaseLib:LinkedList.obj
 0002:00000b44       ??_C@_0BP@IJJCCMAK@List?9?$DOBackLink?5?$CB?$DN?5?$CI?$CIvoid?5?$CK?$CJ?50?$CJ?$AA@ 0001db44     BaseLib:LinkedList.obj
 0002:00000b64       ??_C@_0BF@CBLMFKOC@Node?5?$CB?$DN?5?$CI?$CIvoid?5?$CK?$CJ?50?$CJ?$AA@ 0001db64     BaseLib:LinkedList.obj
 0002:00000b7c       ??_C@_0DG@IMEFJFAE@Count?5?$DM?5_gPcd_FixedAtBuild_PcdMa@ 0001db7c     BaseLib:LinkedList.obj
 0002:00000bb8       ??_C@_0EB@JGCKPMLP@InternalBaseLibIsNodeInList?5?$CILis@ 0001dbb8     BaseLib:LinkedList.obj
 0002:00000bfc       ??_C@_0DM@PHLIJEML@InternalBaseLibIsNodeInList?5?$CILis@ 0001dbfc     BaseLib:LinkedList.obj
 0002:00000c38       ??_C@_0DM@NCFNNADL@InternalBaseLibIsNodeInList?5?$CILis@ 0001dc38     BaseLib:LinkedList.obj
 0002:00000c78       ??_C@_0EE@BFCMBGFO@InternalBaseLibIsNodeInList?5?$CILis@ 0001dc78     BaseLib:LinkedList.obj
 0002:00000cc0       ??_C@_0EJ@NJMKNBJ@InternalBaseLibIsNodeInList?5?$CIFir@ 0001dcc0     BaseLib:LinkedList.obj
 0002:00000d0c       ??_C@_0BF@NMBJJECB@?$CBIsListEmpty?5?$CIEntry?$CJ?$AA@ 0001dd0c     BaseLib:LinkedList.obj
 0002:00000d24       ??_C@_0N@KGHEHMDL@Divisor?5?$CB?$DN?50?$AA@ 0001dd24     BaseLib:DivU64x32.obj
 0002:00000d34       ??_C@_0CC@JOEHDGKB@DestinationBuffer?5?$CB?$DN?5?$CI?$CIvoid?5?$CK?$CJ?50@ 0001dd34     BaseMemoryLibOptDxe:CompareMemWrapper.obj
 0002:00000d58       ??_C@_0DK@BHHGEGGL@q?3?2MdePkg?2Library?2BaseMemoryLibO@ 0001dd58     BaseMemoryLibOptDxe:CompareMemWrapper.obj
 0002:00000d94       ??_C@_0BN@MDMCNBCC@SourceBuffer?5?$CB?$DN?5?$CI?$CIvoid?5?$CK?$CJ?50?$CJ?$AA@ 0001dd94     BaseMemoryLibOptDxe:CompareMemWrapper.obj
 0002:00000db4       ??_C@_0DI@PHOMHDKH@?$CILength?5?9?51?$CJ?5?$DM?$DN?5?$CI0xFFFFFFFF?5?9?5?$CIU@ 0001ddb4     BaseMemoryLibOptDxe:CompareMemWrapper.obj
 0002:00000dec       ??_C@_0DD@DCDOHCDJ@?$CILength?5?9?51?$CJ?5?$DM?$DN?5?$CI0xFFFFFFFF?5?9?5?$CIU@ 0001ddec     BaseMemoryLibOptDxe:CompareMemWrapper.obj
 0002:00000e20       ??_C@_0CL@OBMFBPED@Length?5?$DM?$DN?5?$CI0xFFFFFFFF?5?9?5?$CIUINTN?$CJB@ 0001de20     BaseMemoryLibOptDxe:MemLibGuid.obj
 0002:00000e4c       ??_C@_0DH@PIHDLFLO@q?3?2MdePkg?2Library?2BaseMemoryLibO@ 0001de4c     BaseMemoryLibOptDxe:CopyMemWrapper.obj
 0002:00000e84       ??_C@_0CI@MNELLLEK@?$CB?$CIBuffer?5?$DN?$DN?5?$CI?$CIvoid?5?$CK?$CJ?50?$CJ?5?$CG?$CG?5Leng@ 0001de84     BaseMemoryLibOptDxe:ZeroMemWrapper.obj
 0002:00000eac       ??_C@_0DH@EMNBNEHJ@q?3?2MdePkg?2Library?2BaseMemoryLibO@ 0001deac     BaseMemoryLibOptDxe:ZeroMemWrapper.obj
 0002:00000ee4       ??_C@_0BH@LKMBFCBF@Format?5?$CB?$DN?5?$CI?$CIvoid?5?$CK?$CJ?50?$CJ?$AA@ 0001dee4     PeiDxeDebugLibReportStatusCode:DebugLib.obj
 0002:00000f00       ??_C@_0EN@CNOKPIHJ@q?3?2IntelFrameworkModulePkg?2Libra@ 0001df00     PeiDxeDebugLibReportStatusCode:DebugLib.obj
 0002:00000f50       ??_C@_0CI@HIINONDG@?$CICHAR8?5?$CK?$CJBaseListMarker?5?$DM?$DN?5Forma@ 0001df50     PeiDxeDebugLibReportStatusCode:DebugLib.obj
 0002:00000f78       ??_C@_0BH@IACGKAP@Buffer?5?$CB?$DN?5?$CI?$CIvoid?5?$CK?$CJ?50?$CJ?$AA@ 0001df78     PeiDxeDebugLibReportStatusCode:DebugLib.obj
 0002:00000f90       ??_C@_0EA@JCDEKIGH@q?3?2MdePkg?2Library?2UefiMemoryAllo@ 0001df90     UefiMemoryAllocationLib:MemoryAllocationLib.obj
 0002:00000fd0       ??_C@_0DE@FCAJAHCJ@AllocationSize?5?$DM?$DN?5?$CI0xFFFFFFFF?5?9?5@ 0001dfd0     UefiMemoryAllocationLib:MemoryAllocationLib.obj
 0002:00001004       ??_C@_0BN@COECPDCC@gImageHandle?5?$CB?$DN?5?$CI?$CIvoid?5?$CK?$CJ?50?$CJ?$AA@ 0001e004     UefiBootServicesTableLib:UefiBootServicesTableLib.obj
 0002:00001028       ??_C@_0EG@IHBEIGJL@q?3?2MdePkg?2Library?2UefiBootServic@ 0001e028     UefiBootServicesTableLib:UefiBootServicesTableLib.obj
 0002:00001070       ??_C@_0BE@DGNHAHIL@gST?5?$CB?$DN?5?$CI?$CIvoid?5?$CK?$CJ?50?$CJ?$AA@ 0001e070     UefiBootServicesTableLib:UefiBootServicesTableLib.obj
 0002:00001084       ??_C@_0BE@BDFJLGLN@gBS?5?$CB?$DN?5?$CI?$CIvoid?5?$CK?$CJ?50?$CJ?$AA@ 0001e084     UefiBootServicesTableLib:UefiBootServicesTableLib.obj
 0002:00001098       ??_C@_0EK@PAKOFLDC@q?3?2MdePkg?2Library?2UefiDevicePath@ 0001e098     UefiDevicePathLibDevicePathProtocol:UefiDevicePathLib.obj
 0002:000010e4       ??_C@_0DC@CNNBPJA@mDevicePathLibDevicePathUtilitie@ 0001e0e4     UefiDevicePathLibDevicePathProtocol:UefiDevicePathLib.obj
 0002:00001118       ??_C@_0BE@OBDFIHND@gRT?5?$CB?$DN?5?$CI?$CIvoid?5?$CK?$CJ?50?$CJ?$AA@ 0001e118     UefiRuntimeServicesTableLib:UefiRuntimeServicesTableLib.obj
 0002:00001130       ??_C@_0EM@DLKNJEFG@q?3?2MdePkg?2Library?2UefiRuntimeSer@ 0001e130     UefiRuntimeServicesTableLib:UefiRuntimeServicesTableLib.obj
 0002:0000117c       ??_C@_0CI@BGLNHBLM@?$CI?$CI?$CIUINTN?$CJ?5?$CIStartOfBuffer?$CJ?$CJ?5?$CG?50x0@ 0001e17c     BasePrintLib:PrintLib.obj
 0002:000011a4       ??_C@_0CK@LOLCLJPB@q?3?2MdePkg?2Library?2BasePrintLib?2P@ 0001e1a4     BasePrintLib:PrintLib.obj
 0002:000011d0       ??_C@_0CH@KJLBGOBB@?$CI?$CI?$CIUINTN?$CJ?5?$CIFormatString?$CJ?$CJ?5?$CG?50x01@ 0001e1d0     BasePrintLib:PrintLib.obj
 0002:000011f8       ??_C@_0BB@MFGDFIJM@Compromised?5Data?$AA@ 0001e1f8     BasePrintLib:PrintLibInternal.obj
 0002:0000120c       ??_C@_0BB@KFJAMCOC@Invalid?5Language?$AA@ 0001e20c     BasePrintLib:PrintLibInternal.obj
 0002:00001220       ??_C@_0M@FKGOBENP@End?5of?5File?$AA@ 0001e220     BasePrintLib:PrintLibInternal.obj
 0002:0000122c       ??_C@_0O@GLPDOMCP@Reserved?5?$CI30?$CJ?$AA@ 0001e22c     BasePrintLib:PrintLibInternal.obj
 0002:0000123c       ??_C@_0O@NMJOLAMF@Reserved?5?$CI29?$CJ?$AA@ 0001e23c     BasePrintLib:PrintLibInternal.obj
 0002:0000124c       ??_C@_0N@JEJDHPO@End?5of?5Media?$AA@ 0001e24c     BasePrintLib:PrintLibInternal.obj
 0002:0000125c       ??_C@_09BOMAGJEG@CRC?5Error?$AA@ 0001e25c     BasePrintLib:PrintLibInternal.obj
 0002:00001268       ??_C@_0BD@KHMPCIOG@Security?5Violation?$AA@ 0001e268     BasePrintLib:PrintLibInternal.obj
 0002:0000127c       ??_C@_0BF@EHOBGFMI@Incompatible?5Version?$AA@ 0001e27c     BasePrintLib:PrintLibInternal.obj
 0002:00001294       ??_C@_0P@NCJHBCLM@Protocol?5Error?$AA@ 0001e294     BasePrintLib:PrintLibInternal.obj
 0002:000012a4       ??_C@_0L@DJKNJKHM@TFTP?5Error?$AA@ 0001e2a4     BasePrintLib:PrintLibInternal.obj
 0002:000012b0       ??_C@_0L@LKIFCMNO@ICMP?5Error?$AA@ 0001e2b0     BasePrintLib:PrintLibInternal.obj
 0002:000012bc       ??_C@_07LCKDCBKK@Aborted?$AA@ 0001e2bc     BasePrintLib:PrintLibInternal.obj
 0002:000012c4       ??_C@_0BA@IGIBFFPH@Already?5started?$AA@ 0001e2c4     BasePrintLib:PrintLibInternal.obj
 0002:000012d4       ??_C@_0M@DCJFAFHJ@Not?5started?$AA@ 0001e2d4     BasePrintLib:PrintLibInternal.obj
 0002:000012e0       ??_C@_08PAFJCNGP@Time?5out?$AA@ 0001e2e0     BasePrintLib:PrintLibInternal.obj
 0002:000012ec       ??_C@_0L@IFPBNFC@No?5mapping?$AA@ 0001e2ec     BasePrintLib:PrintLibInternal.obj
 0002:000012f8       ??_C@_0M@ENKCBFEP@No?5Response?$AA@ 0001e2f8     BasePrintLib:PrintLibInternal.obj
 0002:00001304       ??_C@_0O@NFHOBIDO@Access?5Denied?$AA@ 0001e304     BasePrintLib:PrintLibInternal.obj
 0002:00001314       ??_C@_09CFCBFJND@Not?5Found?$AA@ 0001e314     BasePrintLib:PrintLibInternal.obj
 0002:00001320       ??_C@_0O@JNCJKCCD@Media?5changed?$AA@ 0001e320     BasePrintLib:PrintLibInternal.obj
 0002:00001330       ??_C@_08KEGAJDNN@No?5Media?$AA@ 0001e330     BasePrintLib:PrintLibInternal.obj
 0002:0000133c       ??_C@_0M@HDLEPOFA@Volume?5Full?$AA@ 0001e33c     BasePrintLib:PrintLibInternal.obj
 0002:00001348       ??_C@_0P@EIOJGIF@Volume?5Corrupt?$AA@ 0001e348     BasePrintLib:PrintLibInternal.obj
 0002:00001358       ??_C@_0BB@GOILNEAA@Out?5of?5Resources?$AA@ 0001e358     BasePrintLib:PrintLibInternal.obj
 0002:0000136c       ??_C@_0BA@LNEDDFNB@Write?5Protected?$AA@ 0001e36c     BasePrintLib:PrintLibInternal.obj
 0002:0000137c       ??_C@_0N@HHEABDHO@Device?5Error?$AA@ 0001e37c     BasePrintLib:PrintLibInternal.obj
 0002:0000138c       ??_C@_09NKFGCIPN@Not?5Ready?$AA@ 0001e38c     BasePrintLib:PrintLibInternal.obj
 0002:00001398       ??_C@_0BB@EGELJFOB@Buffer?5Too?5Small?$AA@ 0001e398     BasePrintLib:PrintLibInternal.obj
 0002:000013ac       ??_C@_0BA@FLNMPMCF@Bad?5Buffer?5Size?$AA@ 0001e3ac     BasePrintLib:PrintLibInternal.obj
 0002:000013bc       ??_C@_0M@BEECMOIL@Unsupported?$AA@ 0001e3bc     BasePrintLib:PrintLibInternal.obj
 0002:000013c8       ??_C@_0BC@HOFHKGJN@Invalid?5Parameter?$AA@ 0001e3c8     BasePrintLib:PrintLibInternal.obj
 0002:000013dc       ??_C@_0L@PLPBEPPC@Load?5Error?$AA@ 0001e3dc     BasePrintLib:PrintLibInternal.obj
 0002:000013e8       ??_C@_0BD@IFJNJCCO@Warning?5Stale?5Data?$AA@ 0001e3e8     BasePrintLib:PrintLibInternal.obj
 0002:000013fc       ??_C@_0BJ@ODIPDGHB@Warning?5Buffer?5Too?5Small?$AA@ 0001e3fc     BasePrintLib:PrintLibInternal.obj
 0002:00001418       ??_C@_0BG@ECIJMOED@Warning?5Write?5Failure?$AA@ 0001e418     BasePrintLib:PrintLibInternal.obj
 0002:00001430       ??_C@_0BH@GKKCJEPJ@Warning?5Delete?5Failure?$AA@ 0001e430     BasePrintLib:PrintLibInternal.obj
 0002:00001448       ??_C@_0BG@CFJMNNJK@Warning?5Unknown?5Glyph?$AA@ 0001e448     BasePrintLib:PrintLibInternal.obj
 0002:00001460       ??_C@_07PBILKAFL@Success?$AA@ 0001e460     BasePrintLib:PrintLibInternal.obj
 0002:00001468       _mHexStr                   0001e468     BasePrintLib:PrintLibInternal.obj
 0002:00001478       _mStatusString             0001e478     BasePrintLib:PrintLibInternal.obj
 0002:00001514       ??_C@_0DC@CHCEMEEB@q?3?2MdePkg?2Library?2BasePrintLib?2P@ 0001e514     BasePrintLib:PrintLibInternal.obj
 0002:00001548       ??_C@_0CB@NIHAJGJE@StrSize?5?$CI?$CICHAR16?5?$CK?$CJ?5Format?$CJ?5?$CB?$DN?50@ 0001e548     BasePrintLib:PrintLibInternal.obj
 0002:0000156c       ??_C@_0BL@BFEFANFD@AsciiStrSize?5?$CIFormat?$CJ?5?$CB?$DN?50?$AA@ 0001e56c     BasePrintLib:PrintLibInternal.obj
 0002:00001588       ??_C@_0O@MLOLIMFM@?$DMnull?5string?$DO?$AA@ 0001e588     BasePrintLib:PrintLibInternal.obj
 0002:00001598       ??_C@_0M@BJJDNPHK@?$DMnull?5guid?$DO?$AA@ 0001e598     BasePrintLib:PrintLibInternal.obj
 0002:000015a4       ??_C@_0DB@PMLHLBMO@?$CF08x?9?$CF04x?9?$CF04x?9?$CF02x?$CF02x?9?$CF02x?$CF02x@ 0001e5a4     BasePrintLib:PrintLibInternal.obj
 0002:000015d8       ??_C@_0M@LHGBCIKM@?$DMnull?5time?$DO?$AA@ 0001e5d8     BasePrintLib:PrintLibInternal.obj
 0002:000015e4       ??_C@_0BK@FCPKCIDD@?$CF02d?1?$CF02d?1?$CF04d?5?5?$CF02d?3?$CF02d?$AA@ 0001e5e4     BasePrintLib:PrintLibInternal.obj
 0002:00001600       ??_C@_04JIMNDDED@?$CF08X?$AA@ 0001e600     BasePrintLib:PrintLibInternal.obj
 0002:00001608       ??_C@_02PCIJFNDE@?$AN?6?$AA@ 0001e608     BasePrintLib:PrintLibInternal.obj
 0002:0000160c       ??_C@_01LIIJDEN@?$AN?$AA@  0001e60c     BasePrintLib:PrintLibInternal.obj
 0002:00001610       ??_C@_0EM@FPGGOFNC@?$CI?$CI?$CIFlags?5?$CG?50x00000040?$CJ?5?$DN?$DN?50?$CJ?$CJ?5?$HM?$HM@ 0001e610     BasePrintLib:PrintLibInternal.obj
 0002:00001660       ??_C@_0EG@NFDMKACK@?$CI?$CI?$CIFlags?5?$CG?50x00000040?$CJ?5?$CB?$DN?50?$CJ?$CJ?5?$HM?$HM@ 0001e660     BasePrintLib:PrintLibInternal.obj
 0002:000016a8       ??_C@_0CE@KFLJGPMN@q?3?2MdePkg?2Library?2UefiLib?2UefiLi@ 0001e6a8     UefiLib:UefiLib.obj
 0002:000016d0       ??_C@_0EG@GOBFPEEP@Name?5?$CB?$DN?5?$CI?$CIvoid?5?$CK?$CJ?50?$CJ?5?$CG?$CG?5Guid?5?$CB?$DN?5@ 0001e6d0     UefiLib:UefiLib.obj
 0002:00001718       ??_C@_0BH@FMEOEIBC@?$CKValue?5?$CB?$DN?5?$CI?$CIvoid?5?$CK?$CJ?50?$CJ?$AA@ 0001e718     UefiLib:UefiLib.obj
 0002:00001730       ??_C@_0CD@OLFKAJF@SupportedLanguages?5?$CB?$DN?5?$CI?$CIvoid?5?$CK?$CJ?5@ 0001e730     UefiLib:UefiLib.obj
 0002:00001754       ??_C@_0CF@EEAPHGAM@q?3?2MdePkg?2Library?2DxeHobLib?2HobL@ 0001e754     DxeHobLib:HobLib.obj
 0002:0000177c       ??_C@_0BJ@OBFMLLDO@mHobList?5?$CB?$DN?5?$CI?$CIvoid?5?$CK?$CJ?50?$CJ?$AA@ 0001e77c     DxeHobLib:HobLib.obj
 0002:00001798       ??_C@_0BJ@NOLLDKJB@HobStart?5?$CB?$DN?5?$CI?$CIvoid?5?$CK?$CJ?50?$CJ?$AA@ 0001e798     DxeHobLib:HobLib.obj
 0002:000017b4       ??_C@_1BC@DPOIABCP@?$AAE?$AAF?$AAI?$AAD?$AAe?$AAb?$AAu?$AAg?$AA?$AA@ 0001e7b4     DxeDebugPrintErrorLevelLib:DxeDebugPrintErrorLevelLib.obj
 0002:000017c8       ??_C@_0EA@PLELPBKG@q?3?2MdeModulePkg?2Library?2UefiHiiS@ 0001e7c8     UefiHiiServicesLib:UefiHiiServicesLib.obj
 0002:00001808       _mEndOfPakageList          0001e808     UefiHiiLib:HiiLib.obj
 0002:0000180c       ??_C@_0CM@DFDCAJNC@q?3?2MdeModulePkg?2Library?2UefiHiiL@ 0001e80c     UefiHiiLib:HiiLib.obj
 0002:00001838       ??_C@_0CA@OEKIMLLB@PackageListGuid?5?$CB?$DN?5?$CI?$CIvoid?5?$CK?$CJ?50?$CJ?$AA@ 0001e838     UefiHiiLib:HiiLib.obj
 0002:00001858       ??_C@_0BK@KLJHMMPJ@HiiHandle?5?$CB?$DN?5?$CI?$CIvoid?5?$CK?$CJ?50?$CJ?$AA@ 0001e858     UefiHiiLib:HiiLib.obj
 0002:00001874       ??_C@_0CP@FEDOFMGH@q?3?2MdeModulePkg?2Library?2UefiHiiL@ 0001e874     UefiHiiLib:HiiString.obj
 0002:000018a4       ??_C@_06PLDEFKP@x?9UEFI?$AA@ 0001e8a4     UefiHiiLib:HiiString.obj
 0002:000018ac       ??_C@_0O@EMMLPDMJ@StringId?5?$CB?$DN?50?$AA@ 0001e8ac     UefiHiiLib:HiiString.obj
 0002:000018bc       ??_C@_1BK@GGGENMOA@?$AAP?$AAl?$AAa?$AAt?$AAf?$AAo?$AAr?$AAm?$AAL?$AAa?$AAn?$AAg?$AA?$AA@ 0001e8bc     UefiHiiLib:HiiString.obj
 0002:000018d6       ??_C@_00CNPNBAHC@?$AA@     0001e8d6     UefiHiiLib:HiiString.obj
 0002:000018d8       ??_C@_0DB@FEJNHADE@q?3?2MdeModulePkg?2Library?2UefiHiiL@ 0001e8d8     UefiHiiLib:HiiLanguage.obj
 0002:0000190c       ??_C@_0DP@PCKCLDFH@FormData?5?$CB?$DN?5?$CI?$CIvoid?5?$CK?$CJ?50?$CJ?5?$CG?$CG?5Scre@ 0001e90c     CustomizedDisplayLib:CustomizedDisplayLib.obj
 0002:00001950       ??_C@_0EE@OPEGKAII@q?3?2MdeModulePkg?2Library?2Customiz@ 0001e950     CustomizedDisplayLib:CustomizedDisplayLib.obj
 0002:00001994       ??_C@_1BG@HCKICKBP@?$AA?$CF?$AAc?$AA?$CF?$AAc?$AA?$CF?$AAc?$AA?$CF?$AAc?$AA?$CF?$AAs?$AA?$AA@ 0001e994     CustomizedDisplayLib:CustomizedDisplayLib.obj
 0002:000019ac       ??_C@_1O@OBLENKEO@?$AA?$CF?$AAc?$AA?$CF?$AAc?$AA?$CF?$AAs?$AA?$AA@ 0001e9ac     CustomizedDisplayLib:CustomizedDisplayLib.obj
 0002:000019bc       ??_C@_15OJKDPEFE@?$AA?5?$AA?5?$AA?$AA@ 0001e9bc     CustomizedDisplayLib:CustomizedDisplayLib.obj
 0002:000019c4       ??_C@_15GANGMFKL@?$AA?$CF?$AAs?$AA?$AA@ 0001e9c4     CustomizedDisplayLib:CustomizedDisplayLib.obj
 0002:000019cc       ??_C@_15DAMPJCDE@?$AA?$CF?$AAc?$AA?$AA@ 0001e9cc     CustomizedDisplayLib:CustomizedDisplayLib.obj
 0002:000019d4       ??_C@_0CF@FHJJPAPO@mCDLStringPackHandle?5?$CB?$DN?5?$CI?$CIvoid?5?$CK@ 0001e9d4     CustomizedDisplayLib:CustomizedDisplayLib.obj
 0002:000019fc       ??_C@_0BM@GOGIKBPG@RowIdx?5?$DM?56?5?$CG?$CG?5ColumnIdx?5?$DM?53?$AA@ 0001e9fc     CustomizedDisplayLib:CustomizedDisplayLibInternal.obj
 0002:00001a18       ??_C@_0EM@ONANCKJD@q?3?2MdeModulePkg?2Library?2Customiz@ 0001ea18     CustomizedDisplayLib:CustomizedDisplayLibInternal.obj
 0002:00001a64       ??_C@_0BJ@IHAHAJFB@TitleStr?5?$CB?$DN?5?$CI?$CIvoid?5?$CK?$CJ?50?$CJ?$AA@ 0001ea64     CustomizedDisplayLib:CustomizedDisplayLibInternal.obj
 0002:00001a80       ??_C@_0BM@DBDJAPO@gBannerData?5?$CB?$DN?5?$CI?$CIvoid?5?$CK?$CJ?50?$CJ?$AA@ 0001ea80     CustomizedDisplayLib:CustomizedDisplayLibInternal.obj
 0002:00001a9c       ??_C@_13MGDFOILI@?$AA?$CB?$AA?$AA@ 0001ea9c     CustomizedDisplayLib:CustomizedDisplayLibInternal.obj
 0002:00001aa0       ??_C@_0BN@NNAHPNDP@mSpaceBuffer?5?$CB?$DN?5?$CI?$CIvoid?5?$CK?$CJ?50?$CJ?$AA@ 0001eaa0     CustomizedDisplayLib:CustomizedDisplayLibInternal.obj
 0002:00001ac0       ??_C@_06LBMCOACO@Buffer?$AA@ 0001eac0     CustomizedDisplayLib:CustomizedDisplayLibInternal.obj
 0002:00001ac8       ??_C@_0N@LLKJGFOB@BackupBuffer?$AA@ 0001eac8     CustomizedDisplayLib:CustomizedDisplayLibInternal.obj
 0002:00001ad8       ??_C@_0EF@PCDGLKLI@q?3?2MdeModulePkg?2Library?2DxeRepor@ 0001ead8     DxeReportStatusCodeLib:ReportStatusCodeLib.obj
 0002:00001b20       ??_C@_0DN@HHIHPHHB@?$CB?$CI?$CIExtendedData?5?$DN?$DN?5?$CI?$CIvoid?5?$CK?$CJ?50?$CJ?$CJ@ 0001eb20     DxeReportStatusCodeLib:ReportStatusCodeLib.obj
 0002:00001b60       ??_C@_0DN@BBBIFINB@?$CB?$CI?$CIExtendedData?5?$CB?$DN?5?$CI?$CIvoid?5?$CK?$CJ?50?$CJ?$CJ@ 0001eb60     DxeReportStatusCodeLib:ReportStatusCodeLib.obj
 0002:00001ba0       ??_C@_0DI@MIEIGAOH@Status?5code?5extended?5data?5is?5too@ 0001eba0     DxeReportStatusCodeLib:ReportStatusCodeLib.obj
 0002:00001bd8       ??_C@_0CG@MHAECJIA@q?3?2MdePkg?2Library?2BaseLib?2Unalig@ 0001ebd8     BaseLib:Unaligned.obj
 0002:00001c00       ??_C@_0CP@CPEPIGGJ@q?3?2MdePkg?2Library?2BaseLib?2DivU64@ 0001ec00     BaseLib:DivU64x32Remainder.obj
 0003:00000000       _gEfiCallerIdGuid          0001f000     DisplayEngine:AutoGen.obj
 0003:00000010       _gEfiStatusCodeSpecificDataGuid 0001f010     DisplayEngine:AutoGen.obj
 0003:00000020       _gEfiStatusCodeDataTypeDebugGuid 0001f020     DisplayEngine:AutoGen.obj
 0003:00000030       _gEfiGlobalVariableGuid    0001f030     DisplayEngine:AutoGen.obj
 0003:00000040       _gEfiHobListGuid           0001f040     DisplayEngine:AutoGen.obj
 0003:00000050       _gEfiGenericVariableGuid   0001f050     DisplayEngine:AutoGen.obj
 0003:00000060       _gEfiIfrTianoGuid          0001f060     DisplayEngine:AutoGen.obj
 0003:00000070       _gEdkiiFormDisplayEngineProtocolGuid 0001f070     DisplayEngine:AutoGen.obj
 0003:00000080       _gEdkiiFormBrowserEx2ProtocolGuid 0001f080     DisplayEngine:AutoGen.obj
 0003:00000090       _gEfiStatusCodeRuntimeProtocolGuid 0001f090     DisplayEngine:AutoGen.obj
 0003:000000a0       _gEfiDevicePathUtilitiesProtocolGuid 0001f0a0     DisplayEngine:AutoGen.obj
 0003:000000b0       _gEfiHiiFontProtocolGuid   0001f0b0     DisplayEngine:AutoGen.obj
 0003:000000c0       _gEfiDebugMaskProtocolGuid 0001f0c0     DisplayEngine:AutoGen.obj
 0003:000000d0       _gEfiHiiStringProtocolGuid 0001f0d0     DisplayEngine:AutoGen.obj
 0003:000000e0       _gEfiHiiImageProtocolGuid  0001f0e0     DisplayEngine:AutoGen.obj
 0003:000000f0       _gEfiHiiDatabaseProtocolGuid 0001f0f0     DisplayEngine:AutoGen.obj
 0003:00000100       _gEfiHiiConfigRoutingProtocolGuid 0001f100     DisplayEngine:AutoGen.obj
 0003:00000110       _gEfiLoadedImageProtocolGuid 0001f110     DisplayEngine:AutoGen.obj
 0003:00000120       _CustomizedDisplayLibStrings 0001f120     CustomizedDisplayLib:AutoGen.obj
 0003:0000080a       _gLibIsFirstForm           0001f80a     CustomizedDisplayLib:CustomizedDisplayLib.obj
 0003:0000080b       _mStatementLayoutIsChanged 0001f80b     DisplayEngine:FormDisplay.obj
 0003:0000080c       _gCustomizedDisplayLibGuid 0001f80c     CustomizedDisplayLib:CustomizedDisplayLib.obj
 0003:0000081c       _mScanCodeNumber           0001f81c     DisplayEngine:FormDisplay.obj
 0003:00000820       _mDebugMaskProtocol        0001f820     DxeDebugPrintErrorLevelLib:DxeDebugPrintErrorLevelLib.obj
 0003:00000830       _gScanCodeToOperation      0001f830     DisplayEngine:FormDisplay.obj
 0003:00000868       _gScreenOperationToControlFlag 0001f868     DisplayEngine:FormDisplay.obj
 0003:000008b8       _gDisplayEngineGuid        0001f8b8     DisplayEngine:FormDisplay.obj
 0003:000008c8       _mIsFirstForm              0001f8c8     DisplayEngine:FormDisplay.obj
 0003:000008cc       _mPrivateData              0001f8cc     DisplayEngine:FormDisplay.obj
 0003:000008e0       _DisplayEngineStrings      0001f8e0     DisplayEngine:AutoGen.obj
 0003:00001c80       _gHighligthMenuInfo        00020c80     DisplayEngine:FormDisplay.obj
 0003:00001ca4       _gOldFormEntry             00020ca4     DisplayEngine:FormDisplay.obj
 0003:00001cc8       _gImageHandle              00020cc8     UefiBootServicesTableLib:UefiBootServicesTableLib.obj
 0003:00001ccc       _gST                       00020ccc     UefiBootServicesTableLib:UefiBootServicesTableLib.obj
 0003:00001cd0       _gBS                       00020cd0     UefiBootServicesTableLib:UefiBootServicesTableLib.obj
 0003:00001cd4       _gRT                       00020cd4     UefiRuntimeServicesTableLib:UefiRuntimeServicesTableLib.obj
 0003:00001cd8       _mHobList                  00020cd8     DxeHobLib:HobLib.obj
 0003:00001cdc       _mGlobalErrorLevelInitialized 00020cdc     DxeDebugPrintErrorLevelLib:DxeDebugPrintErrorLevelLib.obj
 0003:00001ce0       _mDebugPrintErrorLevel     00020ce0     DxeDebugPrintErrorLevelLib:DxeDebugPrintErrorLevelLib.obj
 0003:00001ce4       _mSystemTable              00020ce4     DxeDebugPrintErrorLevelLib:DxeDebugPrintErrorLevelLib.obj
 0003:00001ce8       _gHiiFont                  00020ce8     UefiHiiServicesLib:UefiHiiServicesLib.obj
 0003:00001cec       _gHiiString                00020cec     UefiHiiServicesLib:UefiHiiServicesLib.obj
 0003:00001cf0       _gHiiImage                 00020cf0     UefiHiiServicesLib:UefiHiiServicesLib.obj
 0003:00001cf4       _gHiiDatabase              00020cf4     UefiHiiServicesLib:UefiHiiServicesLib.obj
 0003:00001cf8       _gHiiConfigRouting         00020cf8     UefiHiiServicesLib:UefiHiiServicesLib.obj
 0003:00001cfc       _mUefiFormBrowser2         00020cfc     UefiHiiLib:HiiLib.obj
 0003:00001d00       _mReportStatusCodeLibStatusCodeProtocol 00020d00     DxeReportStatusCodeLib:ReportStatusCodeLib.obj
 0003:00001d04       _mDevicePathLibDevicePathUtilities 00020d04     UefiDevicePathLibDevicePathProtocol:UefiDevicePathLib.obj
 0003:00001d08       _gMinusString              00020d08     <common>
 0003:00001d0c       _gInputErrorMessage        00020d0c     <common>
 0003:00001d10       _gEnterCommitString        00020d10     <common>
 0003:00001d14       _gToggleCheckBox           00020d14     <common>
 0003:00001d18       _gPlusString               00020d18     <common>
 0003:00001d1c       _gAreYouSure               00020d1c     <common>
 0003:00001d20       _gLibEmptyString           00020d20     <common>
 0003:00001d24       _gDecNumericInput          00020d24     <common>
 0003:00001d28       _gNvUpdateMessage          00020d28     <common>
 0003:00001d2c       _mSpaceBuffer              00020d2c     <common>
 0003:00001d30       _gNoResponse               00020d30     <common>
 0003:00001d34       _gSaveChanges              00020d34     <common>
 0003:00001d38       _gYesResponse              00020d38     <common>
 0003:00001d3c       _gHexNumericInput          00020d3c     <common>
 0003:00001d40       _gAdjustNumber             00020d40     <common>
 0003:00001d44       _mLibUnknownString         00020d44     <common>
 0003:00001d48       _gEscapeString             00020d48     <common>
 0003:00001d50       _gScreenDimensions         00020d50     <common>
 0003:00001d60       _gEnterEscapeString        00020d60     <common>
 0003:00001d64       _gMoveHighlight            00020d64     <common>
 0003:00001d68       _gEnterString              00020d68     <common>
 0003:00001d6c       _mCDLStringPackHandle      00020d6c     <common>
 0003:00001d70       _gClassOfVfr               00020d70     <common>
 0003:00001d74       _gFooterHeight             00020d74     <common>
 0003:00001d78       _gBannerData               00020d78     <common>
 0003:00001d7c       _gPromptForNewPassword     00020d7c     <common>
 0003:00001d80       _gConfirmDefaultMsg        00020d80     <common>
 0003:00001d84       _gPromptBlockWidth         00020d84     <common>
 0003:00001d88       _gPromptForPassword        00020d88     <common>
 0003:00001d8c       _gPromptForData            00020d8c     <common>
 0003:00001d90       _gNoSubmitIf               00020d90     <common>
 0003:00001d94       _gOptionMismatch           00020d94     <common>
 0003:00001d98       _gConfirmOptNo             00020d98     <common>
 0003:00001d9c       _gJumpToFormSet            00020d9c     <common>
 0003:00001da0       _gDiscardChange            00020da0     <common>
 0003:00001da4       _gConfirmMsgConnect        00020da4     <common>
 0003:00001da8       _gConfirmOptYes            00020da8     <common>
 0003:00001dac       _gFormNotFound             00020dac     <common>
 0003:00001db0       _gUserInput                00020db0     <common>
 0003:00001db4       _gSaveFailed               00020db4     <common>
 0003:00001db8       _gFormSuppress             00020db8     <common>
 0003:00001dbc       _gPassowordInvalid         00020dbc     <common>
 0003:00001dc0       _gPressEnter               00020dc0     <common>
 0003:00001dc4       _gReconnectRequired        00020dc4     <common>
 0003:00001dc8       _gChangesOpt               00020dc8     <common>
 0003:00001dcc       _gModalSkipColumn          00020dcc     <common>
 0003:00001dd0       _gConfirmDiscardMsg        00020dd0     <common>
 0003:00001dd4       _gSaveProcess              00020dd4     <common>
 0003:00001dd8       _gConfirmError             00020dd8     <common>
 0003:00001ddc       _gMiniString               00020ddc     <common>
 0003:00001de0       _gConfirmResetMsg2nd       00020de0     <common>
 0003:00001de4       _gConfirmExitMsg2nd        00020de4     <common>
 0003:00001de8       _gConfirmExitMsg           00020de8     <common>
 0003:00001dec       _gReconnectConfirmChanges  00020dec     <common>
 0003:00001df0       _gHiiHandle                00020df0     <common>
 0003:00001df4       _gMisMatch                 00020df4     <common>
 0003:00001df8       _gConfirmOpt               00020df8     <common>
 0003:00001dfc       _gConfirmSubmitMsg         00020dfc     <common>
 0003:00001e00       _gConfirmSubmitMsg2nd      00020e00     <common>
 0003:00001e04       _gConfirmResetMsg          00020e04     <common>
 0003:00001e08       _gOptionBlockWidth         00020e08     <common>
 0003:00001e0c       _gFormData                 00020e0c     <common>
 0003:00001e10       _gEmptyString              00020e10     <common>
 0003:00001e14       _gBrowserError             00020e14     <common>
 0003:00001e18       _gConfirmDefaultMsg2nd     00020e18     <common>
 0003:00001e1c       _gHelpBlockWidth           00020e1c     <common>
 0003:00001e20       _gCheckError               00020e20     <common>
 0003:00001e24       _gReconnectFail            00020e24     <common>
 0003:00001e28       _gNoSubmitIfFailed         00020e28     <common>
 0003:00001e2c       _mUnknownString            00020e2c     <common>
 0003:00001e30       _gDirection                00020e30     <common>
 0003:00001e34       _gProtocolNotFound         00020e34     <common>
 0003:00001e38       _gConfirmMsgEnd            00020e38     <common>
 0003:00001e40       _gMenuOption               00020e40     <common>
 0003:00001e48       _gConfirmPassword          00020e48     <common>
 0003:00001e4c       _gSaveNoSubmitProcess      00020e4c     <common>
 0003:00001e50       _gStatementDimensions      00020e50     <common>

 entry point at        0001:00000045

 Static symbols

