 UiApp

 Timestamp is 62133828 (Mon Feb 21 14:58:48 2022)

 Preferred load address is 00010000

 Start         Length     Name                   Class
 0001:00000000 0000ff1aH .text                   CODE
 0002:00000000 00003734H .rdata                  DATA
 0002:00003734 00000071H .rdata$debug            DATA
 0003:00000000 00004ff0H .data                   DATA
 0003:00005000 000000f4H .bss                    DATA
 0004:00000000 0000004dH .edata                  DATA

  Address         Publics by Value              Rva+Base       Lib:Object

 0001:00000000       __ModuleEntryPoint         00011000 f   UefiApplicationEntryPoint:ApplicationEntryPoint.obj
 0001:00000029       _ProcessLibraryConstructorList 00011029 f   UiApp:AutoGen.obj
 0001:00000313       _ProcessLibraryDestructorList 00011313 f   UiApp:AutoGen.obj
 0001:0000035b       _FakeExtractConfig         0001135b f   UiApp:FrontPage.obj
 0001:0000037c       _FakeRouteConfig           0001137c f   UiApp:FrontPage.obj
 0001:000003dd       _InitializeLanguage        000113dd f   UiApp:FrontPage.obj
 0001:000008bc       _FrontPageCallback         000118bc f   UiApp:FrontPage.obj
 0001:00000a4d       _InitializeFrontPage       00011a4d f   UiApp:FrontPage.obj
 0001:00000b1e       _FreeFrontPage             00011b1e f   UiApp:FrontPage.obj
 0001:00000b9c       _ConvertProcessorToString  00011b9c f   UiApp:FrontPage.obj
 0001:00000c2b       _GetOptionalStringByIndex  00011c2b f   UiApp:FrontPage.obj
 0001:00000c8d       _UpdateFrontPageStrings    00011c8d f   UiApp:FrontPage.obj
 0001:00000e8f       _BdsSetConsoleMode         00011e8f f   UiApp:FrontPage.obj
 0001:00001189       _InitializeUserInterface   00012189 f   UiApp:FrontPage.obj
 0001:00001336       _UiEntry                   00012336 f   UiApp:FrontPage.obj
 0001:000013f1       _ExtractDevicePathFromHiiHandle 000123f1 f   UiApp:FrontPage.obj
 0001:00001478       _ExtractDisplayedHiiFormFromHiiHandle 00012478 f   UiApp:FrontPage.obj
 0001:000016c4       _SetupResetReminder        000126c4 f   UiApp:FrontPage.obj
 0001:0000177f       _UiDevicePathToStr         0001277f f   UiApp:FrontPage.obj
 0001:00001806       _BootManagerCallback       00012806 f   UiApp:BootManager.obj
 0001:0000193c       _InitializeBootManager     0001293c f   UiApp:BootManager.obj
 0001:000019ee       _EnumerateBootOptions      000129ee f   UiApp:BootManager.obj
 0001:00001c53       _FreeBootManager           00012c53 f   UiApp:BootManager.obj
 0001:00001cba       _CreateMenuStringToken     00012cba f   UiApp:BootMaint.obj
 0001:00001d08       _BootMaintExtractConfig    00012d08 f   UiApp:BootMaint.obj
 0001:00001e79       _BootMaintRouteConfig      00012e79 f   UiApp:BootMaint.obj
 0001:00002682       _BootMaintCallback         00013682 f   UiApp:BootMaint.obj
 0001:00002a3a       _DiscardChangeHandler      00013a3a f   UiApp:BootMaint.obj
 0001:00002b6a       _InitializeDrivers         00013b6a f   UiApp:BootMaint.obj
 0001:00002da5       _InitializeBmmConfig       00013da5 f   UiApp:BootMaint.obj
 0001:00002eea       _InitializeBM              00013eea f   UiApp:BootMaint.obj
 0001:00002f7f       _InitAllMenu               00013f7f f   UiApp:BootMaint.obj
 0001:0000300f       _FreeAllMenu               0001400f f   UiApp:BootMaint.obj
 0001:0000308d       _GetStringTokenFromDepository 0001408d f   UiApp:BootMaint.obj
 0001:00003112       _ReclaimStringDepository   00014112 f   UiApp:BootMaint.obj
 0001:00003129       _InitBootMaintenance       00014129 f   UiApp:BootMaint.obj
 0001:000033dd       _FreeBMPackage             000143dd f   UiApp:BootMaint.obj
 0001:000034ba       _DeviceManagerCallback     000144ba f   UiApp:DeviceManager.obj
 0001:0000354f       _GetMacAddressString       0001454f f   UiApp:DeviceManager.obj
 0001:0000366d       _AddIdToMacDeviceList      0001466d f   UiApp:DeviceManager.obj
 0001:00003756       _IsMacAddressDevicePath    00014756 f   UiApp:DeviceManager.obj
 0001:0000381c       _IsNeedAddNetworkMenu      0001481c f   UiApp:DeviceManager.obj
 0001:00003995       _InitializeDeviceManager   00014995 f   UiApp:DeviceManager.obj
 0001:00003a47       _FreeDeviceManager         00014a47 f   UiApp:DeviceManager.obj
 0001:00003aae       _CreateDeviceManagerForm   00014aae f   UiApp:DeviceManager.obj
 0001:00003e4c       _GetNextLanguage           00014e4c f   UiApp:Language.obj
 0001:00003ed2       _RefreshUpdateData         00014ed2 f   UiApp:UpdatePage.obj
 0001:00003efe       _UpdatePageStart           00014efe f   UiApp:UpdatePage.obj
 0001:00003f35       _UpdatePageEnd             00014f35 f   UiApp:UpdatePage.obj
 0001:00003f9c       _CleanUpPage               00014f9c f   UiApp:UpdatePage.obj
 0001:00003fcc       _BootThisFile              00014fcc f   UiApp:UpdatePage.obj
 0001:00004067       _UpdateConCOMPage          00015067 f   UiApp:UpdatePage.obj
 0001:000040c3       _UpdateBootDelPage         000150c3 f   UiApp:UpdatePage.obj
 0001:0000417e       _UpdateDrvAddHandlePage    0001517e f   UiApp:UpdatePage.obj
 0001:000041da       _UpdateDrvDelPage          000151da f   UiApp:UpdatePage.obj
 0001:00004292       _UpdateDriverAddHandleDescPage 00015292 f   UiApp:UpdatePage.obj
 0001:00004313       _UpdateConsolePage         00015313 f   UiApp:UpdatePage.obj
 0001:00004530       _UpdateOrderPage           00015530 f   UiApp:UpdatePage.obj
 0001:0000466b       _UpdateBootNextPage        0001566b f   UiApp:UpdatePage.obj
 0001:00004780       _UpdateTimeOutPage         00015780 f   UiApp:UpdatePage.obj
 0001:00004839       _UpdateConModePage         00015839 f   UiApp:UpdatePage.obj
 0001:00004a01       _UpdateTerminalPage        00015a01 f   UiApp:UpdatePage.obj
 0001:00004dc4       _UpdatePageBody            00015dc4 f   UiApp:UpdatePage.obj
 0001:00004e27       _UpdatePageId              00015e27 f   UiApp:UpdatePage.obj
 0001:00004e83       _UpdateFileExplorePage     00015e83 f   UiApp:FileExplorer.obj
 0001:00004f55       _UpdateFileExplorer        00015f55 f   UiApp:FileExplorer.obj
 0001:00005103       _FileExplorerRouteConfig   00016103 f   UiApp:FileExplorer.obj
 0001:0000527d       _FileExplorerCallback      0001627d f   UiApp:FileExplorer.obj
 0001:000053f6       _BOpt_CreateMenuEntry      000163f6 f   UiApp:BootOption.obj
 0001:00005452       _BOpt_DestroyMenuEntry     00016452 f   UiApp:BootOption.obj
 0001:000054fb       _BOpt_GetMenuEntry         000164fb f   UiApp:BootOption.obj
 0001:0000554f       _BOpt_FindFileSystem       0001654f f   UiApp:BootOption.obj
 0001:0000595a       _BOpt_FreeMenu             0001695a f   UiApp:BootOption.obj
 0001:000059b1       _BOpt_FindFiles            000169b1 f   UiApp:BootOption.obj
 0001:00005c3b       _BOpt_GetBootOptions       00016c3b f   UiApp:BootOption.obj
 0001:00005fa4       _BOpt_AppendFileName       00016fa4 f   UiApp:BootOption.obj
 0001:000060f0       _BOpt_FindDrivers          000170f0 f   UiApp:BootOption.obj
 0001:000061fa       _BOpt_GetOptionNumber      000171fa f   UiApp:BootOption.obj
 0001:000062c4       _BOpt_GetDriverOptions     000172c4 f   UiApp:BootOption.obj
 0001:00006532       _GetBootOrder              00017532 f   UiApp:BootOption.obj
 0001:000065c1       _GetDriverOrder            000175c1 f   UiApp:BootOption.obj
 0001:00006650       _Var_DelBootOption         00017650 f   UiApp:Variable.obj
 0001:000066e6       _Var_ChangeBootOrder       000176e6 f   UiApp:Variable.obj
 0001:000067a5       _Var_DelDriverOption       000177a5 f   UiApp:Variable.obj
 0001:0000682b       _Var_ChangeDriverOrder     0001782b f   UiApp:Variable.obj
 0001:000068ea       _Var_UpdateConsoleOption   000178ea f   UiApp:Variable.obj
 0001:00006a85       _Var_UpdateDriverOption    00017a85 f   UiApp:Variable.obj
 0001:00006e47       _Var_UpdateBootOption      00017e47 f   UiApp:Variable.obj
 0001:000071f4       _Var_UpdateBootNext        000181f4 f   UiApp:Variable.obj
 0001:000072af       _Var_UpdateBootOrder       000182af f   UiApp:Variable.obj
 0001:000073df       _Var_UpdateDriverOrder     000183df f   UiApp:Variable.obj
 0001:000074b4       _MatchDevicePaths          000184b4 f   UiApp:ConsoleOption.obj
 0001:0000751e       _IsIsaSerialNode           0001851e f   UiApp:ConsoleOption.obj
 0001:0000754a       _ChangeTerminalDevicePath  0001854a f   UiApp:ConsoleOption.obj
 0001:00007673       _RetrieveUartUid           00018673 f   UiApp:ConsoleOption.obj
 0001:00007702       _SortedUartHandle          00018702 f   UiApp:ConsoleOption.obj
 0001:00007783       _LocateSerialIo            00018783 f   UiApp:ConsoleOption.obj
 0001:00007aa7       _UpdateComAttributeFromVariable 00018aa7 f   UiApp:ConsoleOption.obj
 0001:00007c11       _GetConsoleMenu            00018c11 f   UiApp:ConsoleOption.obj
 0001:00007dc2       _IsTerminalDevicePath      00018dc2 f   UiApp:ConsoleOption.obj
 0001:00007eee       _GetConsoleOutMode         00018eee f   UiApp:ConsoleOption.obj
 0001:00007f60       _GetTerminalAttribute      00018f60 f   UiApp:ConsoleOption.obj
 0001:0000808a       _EfiGrowBuffer             0001908a f   UiApp:BmLib.obj
 0001:000080e4       _EfiLibDeleteVariable      000190e4 f   UiApp:BmLib.obj
 0001:000080fe       _EfiStrDuplicate           000190fe f   UiApp:BmLib.obj
 0001:00008142       _EfiLibFileInfo            00019142 f   UiApp:BmLib.obj
 0001:00008194       _GetPcdProtocol            00019194 f   DxePcdLib:DxePcdLib.obj
 0001:00008204       _DebugPrint                00019204 f   PeiDxeDebugLibReportStatusCode:DebugLib.obj
 0001:00008380       _DebugAssert               00019380 f   PeiDxeDebugLibReportStatusCode:DebugLib.obj
 0001:0000842c       _CopyGuid                  0001942c f   BaseMemoryLibOptDxe:MemLibGuid.obj
 0001:00008456       _CompareGuid               00019456 f   BaseMemoryLibOptDxe:MemLibGuid.obj
 0001:000084b2       _CopyMem                   000194b2 f   BaseMemoryLibOptDxe:CopyMemWrapper.obj
 0001:0000850f       _ZeroMem                   0001950f f   BaseMemoryLibOptDxe:ZeroMemWrapper.obj
 0001:00008555       _CompareMem                00019555 f   BaseMemoryLibOptDxe:CompareMemWrapper.obj
 0001:000085dc       _InternalGetReportStatusCode 000195dc f   DxeReportStatusCodeLib:ReportStatusCodeLib.obj
 0001:00008615       _InternalReportStatusCode  00019615 f   DxeReportStatusCodeLib:ReportStatusCodeLib.obj
 0001:00008647       _ReportStatusCode          00019647 f   DxeReportStatusCodeLib:ReportStatusCodeLib.obj
 0001:00008661       _ReportStatusCodeEx        00019661 f   DxeReportStatusCodeLib:ReportStatusCodeLib.obj
 0001:000087b4       _StrLen                    000197b4 f   BaseLib:String.obj
 0001:0000881f       _StrCmp                    0001981f f   BaseLib:String.obj
 0001:00008890       _StrnCmp                   00019890 f   BaseLib:String.obj
 0001:00008939       _StrStr                    00019939 f   BaseLib:String.obj
 0001:000089ca       _AsciiStrLen               000199ca f   BaseLib:String.obj
 0001:00008a17       _AsciiStrnCmp              00019a17 f   BaseLib:String.obj
 0001:00008aaa       _AsciiStrToUnicodeStr      00019aaa f   BaseLib:String.obj
 0001:00008b7a       _InternalSafeStringNoStrOverlap 00019b7a f   BaseLib:SafeString.obj
 0001:00008ba2       _InternalSafeStringNoAsciiStrOverlap 00019ba2 f   BaseLib:SafeString.obj
 0001:00008bc6       _StrnLenS                  00019bc6 f   BaseLib:SafeString.obj
 0001:00008c03       _StrCpyS                   00019c03 f   BaseLib:SafeString.obj
 0001:00008d1b       _StrnCpyS                  00019d1b f   BaseLib:SafeString.obj
 0001:00008e67       _StrCatS                   00019e67 f   BaseLib:SafeString.obj
 0001:00008fb8       _StrnCatS                  00019fb8 f   BaseLib:SafeString.obj
 0001:0000910b       _AsciiStrnLenS             0001a10b f   BaseLib:SafeString.obj
 0001:00009125       _AsciiStrCpyS              0001a125 f   BaseLib:SafeString.obj
 0001:000091e5       _RShiftU64                 0001a1e5 f   BaseLib:RShiftU64.obj
 0001:00009209       _ReadUnaligned16           0001a209 f   BaseLib:Unaligned.obj
 0001:00009225       _WriteUnaligned16          0001a225 f   BaseLib:Unaligned.obj
 0001:00009244       _ReadUnaligned32           0001a244 f   BaseLib:Unaligned.obj
 0001:00009262       _WriteUnaligned32          0001a262 f   BaseLib:Unaligned.obj
 0001:00009282       _ReadUnaligned64           0001a282 f   BaseLib:Unaligned.obj
 0001:000092a3       _WriteUnaligned64          0001a2a3 f   BaseLib:Unaligned.obj
 0001:000092cc       _InternalBaseLibIsNodeInList 0001a2cc f   BaseLib:LinkedList.obj
 0001:00009354       _InitializeListHead        0001a354 f   BaseLib:LinkedList.obj
 0001:00009377       _InsertTailList            0001a377 f   BaseLib:LinkedList.obj
 0001:000093ad       _GetFirstNode              0001a3ad f   BaseLib:LinkedList.obj
 0001:000093d6       _GetNextNode               0001a3d6 f   BaseLib:LinkedList.obj
 0001:000093fd       _IsListEmpty               0001a3fd f   BaseLib:LinkedList.obj
 0001:00009429       _IsNull                    0001a429 f   BaseLib:LinkedList.obj
 0001:0000945c       _RemoveEntryList           0001a45c f   BaseLib:LinkedList.obj
 0001:00009492       _InternalAllocatePool      0001a492 f   UefiMemoryAllocationLib:MemoryAllocationLib.obj
 0001:000094b7       _InternalAllocateZeroPool  0001a4b7 f   UefiMemoryAllocationLib:MemoryAllocationLib.obj
 0001:000094d2       _InternalAllocateCopyPool  0001a4d2 f   UefiMemoryAllocationLib:MemoryAllocationLib.obj
 0001:0000952e       _InternalReallocatePool    0001a52e f   UefiMemoryAllocationLib:MemoryAllocationLib.obj
 0001:00009568       _FreePool                  0001a568 f   UefiMemoryAllocationLib:MemoryAllocationLib.obj
 0001:000095a4       _DxePrintLibPrint2ProtocolVaListToBaseList 0001a5a4 f   DxePrintLibPrint2Protocol:PrintLib.obj
 0001:0000970b       _UnicodeVSPrint            0001a70b f   DxePrintLibPrint2Protocol:PrintLib.obj
 0001:0000973e       _UnicodeSPrint             0001a73e f   DxePrintLibPrint2Protocol:PrintLib.obj
 0001:00009757       _UnicodeValueToString      0001a757 f   DxePrintLibPrint2Protocol:PrintLib.obj
 0001:00009776       _IsDevicePathValid         0001a776 f   UefiDevicePathLibDevicePathProtocol:UefiDevicePathLib.obj
 0001:000097da       _DevicePathType            0001a7da f   UefiDevicePathLibDevicePathProtocol:UefiDevicePathLib.obj
 0001:000097f8       _DevicePathSubType         0001a7f8 f   UefiDevicePathLibDevicePathProtocol:UefiDevicePathLib.obj
 0001:00009817       _DevicePathNodeLength      0001a817 f   UefiDevicePathLibDevicePathProtocol:UefiDevicePathLib.obj
 0001:00009842       _NextDevicePathNode        0001a842 f   UefiDevicePathLibDevicePathProtocol:UefiDevicePathLib.obj
 0001:00009869       _IsDevicePathEndType       0001a869 f   UefiDevicePathLibDevicePathProtocol:UefiDevicePathLib.obj
 0001:00009893       _IsDevicePathEnd           0001a893 f   UefiDevicePathLibDevicePathProtocol:UefiDevicePathLib.obj
 0001:000098cd       _SetDevicePathNodeLength   0001a8cd f   UefiDevicePathLibDevicePathProtocol:UefiDevicePathLib.obj
 0001:00009920       _SetDevicePathEndNode      0001a920 f   UefiDevicePathLibDevicePathProtocol:UefiDevicePathLib.obj
 0001:00009950       _GetNextDevicePathInstance 0001a950 f   UefiDevicePathLibDevicePathProtocol:UefiDevicePathLib.obj
 0001:00009976       _DevicePathFromHandle      0001a976 f   UefiDevicePathLibDevicePathProtocol:UefiDevicePathLib.obj
 0001:0000999e       _FileDevicePath            0001a99e f   UefiDevicePathLibDevicePathProtocol:UefiDevicePathLib.obj
 0001:00009a1e       _UefiDevicePathLibLocateProtocol 0001aa1e f   UefiDevicePathLibDevicePathProtocol:UefiDevicePathLib.obj
 0001:00009a48       _ConvertDevicePathToText   0001aa48 f   UefiDevicePathLibDevicePathProtocol:UefiDevicePathLib.obj
 0001:00009a71       _EfiGetSystemConfigurationTable 0001aa71 f   UefiLib:UefiLib.obj
 0001:00009afc       _EfiAcquireLock            0001aafc f   UefiLib:UefiLib.obj
 0001:00009b3b       _EfiReleaseLock            0001ab3b f   UefiLib:UefiLib.obj
 0001:00009b75       _GetVariable2              0001ab75 f   UefiLib:UefiLib.obj
 0001:00009c37       _GetBestLanguage           0001ac37 f   UefiLib:UefiLib.obj
 0001:00009d40       _UefiLibGetStringWidth     0001ad40 f   UefiLib:Console.obj
 0001:00009dc3       _CreatePopUp               0001adc3 f   UefiLib:Console.obj
 0001:0000a14a       _GetHobList                0001b14a f   DxeHobLib:HobLib.obj
 0001:0000a16d       _GetNextHob                0001b16d f   DxeHobLib:HobLib.obj
 0001:0000a1ac       _GetFirstGuidHob           0001b1ac f   DxeHobLib:HobLib.obj
 0001:0000a1e3       _GetDebugPrintErrorLevel   0001b1e3 f   DxeDebugPrintErrorLevelLib:DxeDebugPrintErrorLevelLib.obj
 0001:0000a298       _GetDebugMask              0001b298 f   DxeDebugPrintErrorLevelLib:DxeDebugPrintErrorLevelLib.obj
 0001:0000a2b1       _SetDebugMask              0001b2b1 f   DxeDebugPrintErrorLevelLib:DxeDebugPrintErrorLevelLib.obj
 0001:0000a2bd       _UefiHiiServicesLibConstructor 0001b2bd f   UefiHiiServicesLib:UefiHiiServicesLib.obj
 0001:0000a3a3       _HiiAddPackages            0001b3a3 f   UefiHiiLib:HiiLib.obj
 0001:0000a481       _HiiRemovePackages         0001b481 f   UefiHiiLib:HiiLib.obj
 0001:0000a4de       _HiiGetHiiHandles          0001b4de f   UefiHiiLib:HiiLib.obj
 0001:0000a544       _InternalHiiBlockToConfig  0001b544 f   UefiHiiLib:HiiLib.obj
 0001:0000a5ac       _InternalHiiBrowserCallback 0001b5ac f   UefiHiiLib:HiiLib.obj
 0001:0000a65a       _HiiConstructConfigHdr     0001b65a f   UefiHiiLib:HiiLib.obj
 0001:0000a809       _InternalHiiCompareSubString 0001b809 f   UefiHiiLib:HiiLib.obj
 0001:0000a8d7       _HiiIsConfigHdrMatch       0001b8d7 f   UefiHiiLib:HiiLib.obj
 0001:0000a962       _HiiGetBrowserData         0001b962 f   UefiHiiLib:HiiLib.obj
 0001:0000a9f6       _HiiSetBrowserData         0001b9f6 f   UefiHiiLib:HiiLib.obj
 0001:0000aa9e       _HiiAllocateOpCodeHandle   0001ba9e f   UefiHiiLib:HiiLib.obj
 0001:0000aada       _HiiFreeOpCodeHandle       0001bada f   UefiHiiLib:HiiLib.obj
 0001:0000ab0c       _InternalHiiGrowOpCodeHandle 0001bb0c f   UefiHiiLib:HiiLib.obj
 0001:0000ab7c       _InternalHiiCreateOpCodeExtended 0001bb7c f   UefiHiiLib:HiiLib.obj
 0001:0000abf7       _InternalHiiCreateOpCode   0001bbf7 f   UefiHiiLib:HiiLib.obj
 0001:0000ac16       _InternalHiiAppendOpCodes  0001bc16 f   UefiHiiLib:HiiLib.obj
 0001:0000ac6e       _HiiCreateEndOpCode        0001bc6e f   UefiHiiLib:HiiLib.obj
 0001:0000ac87       _HiiCreateOneOfOptionOpCode 0001bc87 f   UefiHiiLib:HiiLib.obj
 0001:0000ad06       _HiiCreateGuidOpCode       0001bd06 f   UefiHiiLib:HiiLib.obj
 0001:0000ad42       _HiiCreateActionOpCode     0001bd42 f   UefiHiiLib:HiiLib.obj
 0001:0000ad8a       _HiiCreateSubTitleOpCode   0001bd8a f   UefiHiiLib:HiiLib.obj
 0001:0000adc6       _HiiCreateGotoOpCode       0001bdc6 f   UefiHiiLib:HiiLib.obj
 0001:0000ae2b       _HiiCreateGotoExOpCode     0001be2b f   UefiHiiLib:HiiLib.obj
 0001:0000aea9       _HiiCreateCheckBoxOpCode   0001bea9 f   UefiHiiLib:HiiLib.obj
 0001:0000af23       _HiiCreateNumericOpCode    0001bf23 f   UefiHiiLib:HiiLib.obj
 0001:0000afc0       _HiiCreateStringOpCode     0001bfc0 f   UefiHiiLib:HiiLib.obj
 0001:0000b01b       _HiiCreateOneOfOpCode      0001c01b f   UefiHiiLib:HiiLib.obj
 0001:0000b0d5       _HiiCreateOrderedListOpCode 0001c0d5 f   UefiHiiLib:HiiLib.obj
 0001:0000b16a       _InternalHiiUpdateFormPackageData 0001c16a f   UefiHiiLib:HiiLib.obj
 0001:0000b3bf       _HiiUpdateForm             0001c3bf f   UefiHiiLib:HiiLib.obj
 0001:0000b59d       _HiiSetString              0001c59d f   UefiHiiLib:HiiString.obj
 0001:0000b687       _HiiGetString              0001c687 f   UefiHiiLib:HiiString.obj
 0001:0000b79e       _HiiGetSupportedLanguages  0001c79e f   UefiHiiLib:HiiLanguage.obj
 0001:0000b819       _BmDevicePathType          0001c819 f   UefiBootManagerLib:BmBoot.obj
 0001:0000b8f9       _BmFindBootOptionInVariable 0001c8f9 f   UefiBootManagerLib:BmBoot.obj
 0001:0000ba0c       _BmGetFileBufferByMemmapFv 0001ca0c f   UefiBootManagerLib:BmBoot.obj
 0001:0000bb3a       _BmMatchUsbClass           0001cb3a f   UefiBootManagerLib:BmBoot.obj
 0001:0000bbde       _BmEliminateExtraSpaces    0001cbde f   UefiBootManagerLib:BmBoot.obj
 0001:0000bc14       _BmGetDescriptionFromDiskInfo 0001cc14 f   UefiBootManagerLib:BmBoot.obj
 0001:0000bddb       _BmGetUsbDescription       0001cddb f   UefiBootManagerLib:BmBoot.obj
 0001:0000bf4c       _BmGetMiscDescription      0001cf4c f   UefiBootManagerLib:BmBoot.obj
 0001:0000c078       _BmGetBootDescription      0001d078 f   UefiBootManagerLib:BmBoot.obj
 0001:0000c18a       _BmMatchUsbWwid            0001d18a f   UefiBootManagerLib:BmBoot.obj
 0001:0000c2e9       _BmFindUsbDevice           0001d2e9 f   UefiBootManagerLib:BmBoot.obj
 0001:0000c3e3       _BmExpandUsbDevicePath     0001d3e3 f   UefiBootManagerLib:BmBoot.obj
 0001:0000c463       _BmCachePartitionDevicePath 0001d463 f   UefiBootManagerLib:BmBoot.obj
 0001:0000c4e5       _BmExpandPartitionDevicePath 0001d4e5 f   UefiBootManagerLib:BmBoot.obj
 0001:0000c7fc       _BmExpandMediaDevicePath   0001d7fc f   UefiBootManagerLib:BmBoot.obj
 0001:0000ca2c       _BmGetLoadOptionBuffer     0001da2c f   UefiBootManagerLib:BmBoot.obj
 0001:0000cc3f       _EfiBootManagerBoot        0001dc3f f   UefiBootManagerLib:BmBoot.obj
 0001:0000d053       _BmMakeBootOptionDescriptionUnique 0001e053 f   UefiBootManagerLib:BmBoot.obj
 0001:0000d16c       _BmEnumerateBootOptions    0001e16c f   UefiBootManagerLib:BmBoot.obj
 0001:0000d5ae       _EfiBootManagerRefreshAllBootOption 0001e5ae f   UefiBootManagerLib:BmBoot.obj
 0001:0000d6f4       _BmGetFreeOptionNumber     0001e6f4 f   UefiBootManagerLib:BmLoadOption.obj
 0001:0000d82e       _EfiBootManagerLoadOptionToVariable 0001e82e f   UefiBootManagerLib:BmLoadOption.obj
 0001:0000d977       _BmAddOptionNumberToOrderVariable 0001e977 f   UefiBootManagerLib:BmLoadOption.obj
 0001:0000da8c       _EfiBootManagerAddLoadOptionVariable 0001ea8c f   UefiBootManagerLib:BmLoadOption.obj
 0001:0000db0b       _EfiBootManagerInitializeLoadOption 0001eb0b f   UefiBootManagerLib:BmLoadOption.obj
 0001:0000db93       _BmFindLoadOption          0001eb93 f   UefiBootManagerLib:BmLoadOption.obj
 0001:0000dc27       _EfiBootManagerDeleteLoadOptionVariable 0001ec27 f   UefiBootManagerLib:BmLoadOption.obj
 0001:0000dd06       _BmGetDevicePathSizeEx     0001ed06 f   UefiBootManagerLib:BmLoadOption.obj
 0001:0000dd4d       _BmStrSizeEx               0001ed4d f   UefiBootManagerLib:BmLoadOption.obj
 0001:0000ddbb       _BmValidateOption          0001edbb f   UefiBootManagerLib:BmLoadOption.obj
 0001:0000de08       _BmIsValidLoadOptionVariableName 0001ee08 f   UefiBootManagerLib:BmLoadOption.obj
 0001:0000deca       _EfiBootManagerVariableToLoadOption 0001eeca f   UefiBootManagerLib:BmLoadOption.obj
 0001:0000dfd9       _EfiBootManagerGetLoadOptions 0001efd9 f   UefiBootManagerLib:BmLoadOption.obj
 0001:0000e110       _EfiBootManagerFreeLoadOption 0001f110 f   UefiBootManagerLib:BmLoadOption.obj
 0001:0000e14c       _EfiBootManagerFreeLoadOptions 0001f14c f   UefiBootManagerLib:BmLoadOption.obj
 0001:0000e182       _BmIsLoadOptionPeHeaderValid 0001f182 f   UefiBootManagerLib:BmLoadOption.obj
 0001:0000e229       _EfiBootManagerConnectAll  0001f229 f   UefiBootManagerLib:BmConnect.obj
 0001:0000e298       _EfiBootManagerConnectDevicePath 0001f298 f   UefiBootManagerLib:BmConnect.obj
 0001:0000e383       _BmConnectUsbShortFormDevicePath 0001f383 f   UefiBootManagerLib:BmConnect.obj
 0001:0000e475       _BmGetControllerName       0001f475 f   UefiBootManagerLib:BmDriverHealth.obj
 0001:0000e56c       _BmDisplayMessages         0001f56c f   UefiBootManagerLib:BmDriverHealth.obj
 0001:0000e622       _BmRepairNotify            0001f622 f   UefiBootManagerLib:BmDriverHealth.obj
 0001:0000e650       _BmGetSingleControllerHealthStatus 0001f650 f   UefiBootManagerLib:BmDriverHealth.obj
 0001:0000e7cb       _EfiBootManagerGetDriverHealthInfo 0001f7cb f   UefiBootManagerLib:BmDriverHealth.obj
 0001:0000e975       _EfiBootManagerFreeDriverHealthInfo 0001f975 f   UefiBootManagerLib:BmDriverHealth.obj
 0001:0000e9a2       _BmRepairAllControllers    0001f9a2 f   UefiBootManagerLib:BmDriverHealth.obj
 0001:0000ebf9       _BmDelPartMatchInstance    0001fbf9 f   UefiBootManagerLib:BmMisc.obj
 0001:0000eca2       _BmMatchDevicePaths        0001fca2 f   UefiBootManagerLib:BmMisc.obj
 0001:0000ecfd       _BmSetVariableAndReportStatusCodeOnError 0001fcfd f   UefiBootManagerLib:BmMisc.obj
 0001:0000edb7       _BmPrintDp                 0001fdb7 f   UefiBootManagerLib:BmMisc.obj
 0001:0000ede3       _BmHotkeyCallback          0001fde3 f   UefiBootManagerLib:BmHotkey.obj
 0001:0000ef99       _BmUnregisterHotkeyNotify  0001ff99 f   UefiBootManagerLib:BmHotkey.obj
 0001:0000f081       _BmStopHotkeyService       00020081 f   UefiBootManagerLib:BmHotkey.obj
 0001:0000f100       _BmUpdateSystemTableConsole 00020100 f   UefiBootManagerLib:BmConsole.obj
 0001:0000f255       _EfiBootManagerUpdateConsoleVariable 00020255 f   UefiBootManagerLib:BmConsole.obj
 0001:0000f2fe       _EfiBootManagerConnectConsoleVariable 000202fe f   UefiBootManagerLib:BmConsole.obj
 0001:0000f4b9       _EfiBootManagerConnectAllDefaultConsoles 000204b9 f   UefiBootManagerLib:BmConsole.obj
 0001:0000f889       _SetMem16                  00020889 f   BaseMemoryLibOptDxe:SetMem16Wrapper.obj
 0001:0000f911       _InternalEmptyFunction     00020911 f   UefiLib:UefiNotTiano.obj
 0001:0000f912       _EfiCreateEventReadyToBootEx 00020912 f   UefiLib:UefiNotTiano.obj
 0001:0000f992       _EfiGetNameGuidFromFwVolDevicePathNode 00020992 f   UefiLib:UefiNotTiano.obj
 0001:0000f9cb       _InternalPrint             000209cb f   UefiLib:UefiLibPrint.obj
 0001:0000fa72       _Print                     00020a72 f   UefiLib:UefiLibPrint.obj
 0001:0000fa8c       _GetFileBufferByFilePath   00020a8c f   DxeServicesLib:DxeServicesLib.obj
 0001:0000fdf0       _InternalMemCopyMem        00020df0 f   BaseMemoryLibOptDxe:CopyMem.obj
 0001:0000fe60       _InternalMemZeroMem        00020e60 f   BaseMemoryLibOptDxe:ZeroMem.obj
 0001:0000fe80       _InternalMemCompareMem     00020e80 f   BaseMemoryLibOptDxe:CompareMem.obj
 0001:0000fea0       _InternalMemSetMem         00020ea0 f   BaseMemoryLibOptDxe:SetMem.obj
 0001:0000fecc       _InternalMemSetMem32       00020ecc f   BaseMemoryLibOptDxe:SetMem32.obj
 0001:0000fee4       _InternalMemSetMem64       00020ee4 f   BaseMemoryLibOptDxe:SetMem64.obj
 0001:0000ff04       _InternalMemSetMem16       00020f04 f   BaseMemoryLibOptDxe:SetMem16.obj
 0002:0000001c       __gPcd_FixedAtBuild_PcdUefiVariableDefaultPlatformLangCodes 0002101c     UiApp:AutoGen.obj
 0002:00000030       __gPcd_FixedAtBuild_PcdBootManagerMenuFile 00021030     UiApp:AutoGen.obj
 0002:00000040       __gPcd_FixedAtBuild_PcdDriverHealthConfigureForm 00021040     UiApp:AutoGen.obj
 0002:00000050       ??_C@_0CB@DMEJJJHA@?6ASSERT_EFI_ERROR?5?$CIStatus?5?$DN?5?$CFr?$CJ?6@ 00021050     UiApp:AutoGen.obj
 0002:00000074       ??_C@_0BE@DCHLEIGN@?$CBEFI_ERROR?5?$CIStatus?$CJ?$AA@ 00021074     UiApp:AutoGen.obj
 0002:00000088       ??_C@_0FJ@BKNFDHOI@q?3?2Build?2NT32IA32?2DEBUG_DEVTLS?2I@ 00021088     UiApp:AutoGen.obj
 0002:000000e4       _mBmUsbLangId              000210e4     UefiBootManagerLib:BmBoot.obj
 0002:000000e8       __gUefiDriverRevision      000210e8     UiApp:AutoGen.obj
 0002:000000ec       ??_C@_0CC@PIBHJFDN@StartOpCodeHandle?5?$CB?$DN?5?$CI?$CIvoid?5?$CK?$CJ?50@ 000210ec     UiApp:FrontPage.obj
 0002:00000110       ??_C@_0CO@HJDPJOGM@q?3?2MdeModulePkg?2Application?2UiAp@ 00021110     UiApp:FrontPage.obj
 0002:00000140       ??_C@_0CA@FMKGPAPI@EndOpCodeHandle?5?$CB?$DN?5?$CI?$CIvoid?5?$CK?$CJ?50?$CJ?$AA@ 00021140     UiApp:FrontPage.obj
 0002:00000160       ??_C@_0CE@KJODLANI@OptionsOpCodeHandle?5?$CB?$DN?5?$CI?$CIvoid?5?$CK?$CJ@ 00021160     UiApp:FrontPage.obj
 0002:00000184       ??_C@_1BK@GGGENMOA@?$AAP?$AAl?$AAa?$AAt?$AAf?$AAo?$AAr?$AAm?$AAL?$AAa?$AAn?$AAg?$AA?$AA@ 00021184     UiApp:FrontPage.obj
 0002:000001a0       ??_C@_1CE@GLBFGNOF@?$AAP?$AAl?$AAa?$AAt?$AAf?$AAo?$AAr?$AAm?$AAL?$AAa?$AAn?$AAg?$AAC?$AAo?$AAd?$AAe?$AAs?$AA?$AA@ 000211a0     UiApp:FrontPage.obj
 0002:000001c4       ??_C@_0CA@NHEBIPDH@mLanguageString?5?$CB?$DN?5?$CI?$CIvoid?5?$CK?$CJ?50?$CJ?$AA@ 000211c4     UiApp:FrontPage.obj
 0002:000001e4       ??_C@_0BF@KEEBGAAP@Lang?5?$CB?$DN?5?$CI?$CIvoid?5?$CK?$CJ?50?$CJ?$AA@ 000211e4     UiApp:FrontPage.obj
 0002:000001fc       ??_C@_0DA@DFGLHBHL@gFrontPagePrivate?4LanguageToken?5@ 000211fc     UiApp:FrontPage.obj
 0002:0000022c       ??_C@_0BN@KDBDLHMK@StringBuffer?5?$CB?$DN?5?$CI?$CIvoid?5?$CK?$CJ?50?$CJ?$AA@ 0002122c     UiApp:FrontPage.obj
 0002:0000024c       ??_C@_0BC@FEDIJHFF@?$CI?$CIBOOLEAN?$CJ?$CI0?$DN?$DN1?$CJ?$CJ?$AA@ 0002124c     UiApp:FrontPage.obj
 0002:00000260       ??_C@_0CM@HGKGDJCC@gFrontPagePrivate?4HiiHandle?5?$CB?$DN?5?$CI@ 00021260     UiApp:FrontPage.obj
 0002:0000028c       ??_C@_13JOFGPIOO@?$AA?4?$AA?$AA@ 0002128c     UiApp:FrontPage.obj
 0002:00000290       ??_C@_19JHPJJHFE@?$AA?5?$AAG?$AAH?$AAz?$AA?$AA@ 00021290     UiApp:FrontPage.obj
 0002:0000029c       ??_C@_1BA@NLEEMPFA@?$AA?5?$AAM?$AAB?$AA?5?$AAR?$AAA?$AAM?$AA?$AA@ 0002129c     UiApp:FrontPage.obj
 0002:000002ac       ??_C@_0BK@KLJHMMPJ@HiiHandle?5?$CB?$DN?5?$CI?$CIvoid?5?$CK?$CJ?50?$CJ?$AA@ 000212ac     UiApp:FrontPage.obj
 0002:000002c8       ??_C@_0BH@OOIJJHNK@Handle?5?$CB?$DN?5?$CI?$CIvoid?5?$CK?$CJ?50?$CJ?$AA@ 000212c8     UiApp:FrontPage.obj
 0002:000002e0       ??_C@_0HN@LDGCKGDE@SetupClassGuid?5?$CB?$DN?5?$CI?$CIvoid?5?$CK?$CJ?50?$CJ?5?$CG@ 000212e0     UiApp:FrontPage.obj
 0002:00000360       ??_C@_0CP@EPIFHCKP@Status?5?$CB?$DN?5?$CI?$CIRETURN_STATUS?$CJ?$CI0x800@ 00021360     UiApp:FrontPage.obj
 0002:00000390       ??_C@_0CO@IEPJJMDF@Status?5?$DN?$DN?5?$CI?$CIRETURN_STATUS?$CJ?$CI0x800@ 00021390     UiApp:FrontPage.obj
 0002:000003c0       ??_C@_0BP@JFMDNGDC@HiiPackageList?5?$CB?$DN?5?$CI?$CIvoid?5?$CK?$CJ?50?$CJ?$AA@ 000213c0     UiApp:FrontPage.obj
 0002:000003e0       ??_C@_0BO@IOFODAMB@StringBuffer1?5?$CB?$DN?5?$CI?$CIvoid?5?$CK?$CJ?50?$CJ?$AA@ 000213e0     UiApp:FrontPage.obj
 0002:00000400       ??_C@_0BO@GENIONKD@StringBuffer2?5?$CB?$DN?5?$CI?$CIvoid?5?$CK?$CJ?50?$CJ?$AA@ 00021400     UiApp:FrontPage.obj
 0002:00000420       ??_C@_1FM@DPJPLHJF@?$AAC?$AAo?$AAn?$AAf?$AAi?$AAg?$AAu?$AAr?$AAa?$AAt?$AAi?$AAo?$AAn?$AA?5?$AAc?$AAh?$AAa?$AAn?$AAg?$AAe?$AAd?$AA?4?$AA?5?$AAR?$AAe?$AAs?$AAe?$AAt?$AA?5?$AAt?$AAo?$AA?5@ 00021420     UiApp:FrontPage.obj
 0002:0000047c       ??_C@_1CK@LOFHOMO@?$AAP?$AAr?$AAe?$AAs?$AAs?$AA?5?$AAE?$AAN?$AAT?$AAE?$AAR?$AA?5?$AAt?$AAo?$AA?5?$AAr?$AAe?$AAs?$AAe?$AAt?$AA?$AA@ 0002147c     UiApp:FrontPage.obj
 0002:000004a8       ??_C@_0BH@GHAKFHML@ToText?5?$CB?$DN?5?$CI?$CIvoid?5?$CK?$CJ?50?$CJ?$AA@ 000214a8     UiApp:FrontPage.obj
 0002:000004c0       ??_C@_1CM@CNECEIDD@?$AAL?$AAe?$AAg?$AAa?$AAc?$AAy?$AA?5?$AAU?$AAn?$AAk?$AAn?$AAo?$AAw?$AAn?$AA?5?$AAD?$AAe?$AAv?$AAi?$AAc?$AAe?$AA?$AA@ 000214c0     UiApp:BootManager.obj
 0002:000004ec       ??_C@_1DA@LLMHHEOA@?$AAL?$AAe?$AAg?$AAa?$AAc?$AAy?$AA?5?$AAE?$AAm?$AAb?$AAe?$AAd?$AAd?$AAe?$AAd?$AA?5?$AAN?$AAe?$AAt?$AAw?$AAo?$AAr?$AAk?$AA?$AA@ 000214ec     UiApp:BootManager.obj
 0002:0000051c       ??_C@_1BG@ENPLCDPC@?$AAL?$AAe?$AAg?$AAa?$AAc?$AAy?$AA?5?$AAU?$AAS?$AAB?$AA?$AA@ 0002151c     UiApp:BootManager.obj
 0002:00000534       ??_C@_1BM@CCEDBLBN@?$AAL?$AAe?$AAg?$AAa?$AAc?$AAy?$AA?5?$AAP?$AAC?$AAM?$AAC?$AAI?$AAA?$AA?$AA@ 00021534     UiApp:BootManager.obj
 0002:00000550       ??_C@_1BM@EEIPAJPF@?$AAL?$AAe?$AAg?$AAa?$AAc?$AAy?$AA?5?$AAC?$AAD?$AA?5?$AAR?$AAO?$AAM?$AA?$AA@ 00021550     UiApp:BootManager.obj
 0002:0000056c       ??_C@_1CE@EJMDGBEH@?$AAL?$AAe?$AAg?$AAa?$AAc?$AAy?$AA?5?$AAH?$AAa?$AAr?$AAd?$AA?5?$AAD?$AAr?$AAi?$AAv?$AAe?$AA?$AA@ 0002156c     UiApp:BootManager.obj
 0002:00000590       ??_C@_1BM@IAJGCJBG@?$AAL?$AAe?$AAg?$AAa?$AAc?$AAy?$AA?5?$AAF?$AAl?$AAo?$AAp?$AAp?$AAy?$AA?$AA@ 00021590     UiApp:BootManager.obj
 0002:000005ac       ??_C@_1BG@DBHBDKIO@?$AAL?$AAe?$AAg?$AAa?$AAc?$AAy?$AA?5?$AAB?$AAE?$AAV?$AA?$AA@ 000215ac     UiApp:BootManager.obj
 0002:000005c4       ??_C@_0DJ@DCBOKJNG@q?3?2MdeModulePkg?2Application?2UiAp@ 000215c4     UiApp:BootManager.obj
 0002:00000600       ??_C@_0CO@JHOJDCNH@gBootManagerPrivate?4HiiHandle?5?$CB?$DN@ 00021600     UiApp:BootManager.obj
 0002:00000630       ??_C@_0CO@EBBHKDJM@BootOption?$FLIndex?$FN?4Description?5?$CB?$DN@ 00021630     UiApp:BootManager.obj
 0002:00000660       ??_C@_1BO@PNIJGPEG@?$AAD?$AAe?$AAv?$AAi?$AAc?$AAe?$AA?5?$AAP?$AAa?$AAt?$AAh?$AA?5?$AA?3?$AA?5?$AA?$AA@ 00021660     UiApp:BootManager.obj
 0002:00000680       ??_C@_0BL@DFKODJNK@HelpString?5?$CB?$DN?5?$CI?$CIvoid?5?$CK?$CJ?50?$CJ?$AA@ 00021680     UiApp:BootManager.obj
 0002:0000069c       ??_C@_0BF@NDBIKIKC@CR?5has?5Bad?5Signature?$AA@ 0002169c     UiApp:BootMaint.obj
 0002:000006b4       ??_C@_0DI@OPHBNNJF@q?3?2MdeModulePkg?2Application?2UiAp@ 000216b4     UiApp:BootMaint.obj
 0002:000006ec       ??_C@_1O@LFMAFHMH@?$AAO?$AAF?$AAF?$AAS?$AAE?$AAT?$AA?$AA@ 000216ec     UiApp:BootMaint.obj
 0002:000006fc       ??_C@_0BO@KAEFIFMO@ConfigRequest?5?$CB?$DN?5?$CI?$CIvoid?5?$CK?$CJ?50?$CJ?$AA@ 000216fc     UiApp:BootMaint.obj
 0002:0000071c       ??_C@_1DC@EPJEBJEB@?$AA?$CF?$AAs?$AA?$CG?$AAO?$AAF?$AAF?$AAS?$AAE?$AAT?$AA?$DN?$AA0?$AA?$CG?$AAW?$AAI?$AAD?$AAT?$AAH?$AA?$DN?$AA?$CF?$AA0?$AA1?$AA6?$AAL?$AAX?$AA?$AA@ 0002171c     UiApp:BootMaint.obj
 0002:00000750       ??_C@_1BA@BKONPLFM@?$AAT?$AAi?$AAm?$AAe?$AAo?$AAu?$AAt?$AA?$AA@ 00021750     UiApp:BootMaint.obj
 0002:00000760       ??_C@_0BN@LKNBJPEL@NewMenuEntry?5?$CB?$DN?5?$CI?$CIvoid?5?$CK?$CJ?50?$CJ?$AA@ 00021760     UiApp:BootMaint.obj
 0002:00000780       ??_C@_0FE@NHCJOPIG@NewBmmData?9?$DOCOMBaudRate?$FLIndex?$FN?5?$DM@ 00021780     UiApp:BootMaint.obj
 0002:000007d8       ??_C@_0FE@PGNKCOH@NewBmmData?9?$DOCOMDataRate?$FLIndex?$FN?5?$DM@ 000217d8     UiApp:BootMaint.obj
 0002:00000830       ??_C@_0FE@FIANLDFH@NewBmmData?9?$DOCOMStopBits?$FLIndex?$FN?5?$DM@ 00021830     UiApp:BootMaint.obj
 0002:00000888       ??_C@_0EO@OFDDNCCO@NewBmmData?9?$DOCOMParity?$FLIndex?$FN?5?$DM?5?$CI@ 00021888     UiApp:BootMaint.obj
 0002:000008d8       ??_C@_0M@FEHBHOOC@Index?5?$DM?5100?$AA@ 000218d8     UiApp:BootMaint.obj
 0002:000008e4       ??_C@_0CI@LNNDKNDP@Index?5?$CL?5ConsoleInpMenu?4MenuNumbe@ 000218e4     UiApp:BootMaint.obj
 0002:0000090c       ??_C@_0CI@CDCMIKKB@Index?5?$CL?5ConsoleOutMenu?4MenuNumbe@ 0002190c     UiApp:BootMaint.obj
 0002:00000934       ??_C@_0CI@EDJDHKEG@Index?5?$CL?5ConsoleErrMenu?4MenuNumbe@ 00021934     UiApp:BootMaint.obj
 0002:00000960       ??_C@_0HG@OENJEKEB@BootOptionMenu?4MenuNumber?5?$DM?$DN?5?$CIsi@ 00021960     UiApp:BootMaint.obj
 0002:000009d8       ??_C@_0HM@DOJIJBLN@DriverOptionMenu?4MenuNumber?5?$DM?$DN?5?$CI@ 000219d8     UiApp:BootMaint.obj
 0002:00000a54       ??_C@_0BL@IONPMOEP@HiiHandles?5?$CB?$DN?5?$CI?$CIvoid?5?$CK?$CJ?50?$CJ?$AA@ 00021a54     UiApp:BootMaint.obj
 0002:00000a70       ??_C@_0BH@MAAHKCPC@String?5?$CB?$DN?5?$CI?$CIvoid?5?$CK?$CJ?50?$CJ?$AA@ 00021a70     UiApp:BootMaint.obj
 0002:00000a88       ??_C@_0BN@NKFFBBKI@CallbackData?5?$CB?$DN?5?$CI?$CIvoid?5?$CK?$CJ?50?$CJ?$AA@ 00021a88     UiApp:BootMaint.obj
 0002:00000aa8       ??_C@_0BN@BHLBNLAB@NextListNode?5?$CB?$DN?5?$CI?$CIvoid?5?$CK?$CJ?50?$CJ?$AA@ 00021aa8     UiApp:BootMaint.obj
 0002:00000ac8       ??_C@_13HOIJIPNN@?$AA?5?$AA?$AA@ 00021ac8     UiApp:BootMaint.obj
 0002:00000acc       ??_C@_0BP@EHFEBHBL@NextListNode?9?$DOStringToken?5?$CB?$DN?50?$AA@ 00021acc     UiApp:BootMaint.obj
 0002:00000aec       ??_C@_0CA@GJGBDAEI@BmmCallbackInfo?5?$CB?$DN?5?$CI?$CIvoid?5?$CK?$CJ?50?$CJ?$AA@ 00021aec     UiApp:BootMaint.obj
 0002:00000b0c       ??_C@_0BE@BCCJKDNM@Ptr?5?$CB?$DN?5?$CI?$CIvoid?5?$CK?$CJ?50?$CJ?$AA@ 00021b0c     UiApp:BootMaint.obj
 0002:00000b20       ??_C@_0CO@MONMFDPO@BmmCallbackInfo?9?$DOBmmHiiHandle?5?$CB?$DN@ 00021b20     UiApp:BootMaint.obj
 0002:00000b50       ??_C@_0CN@BAIFFIF@BmmCallbackInfo?9?$DOFeHiiHandle?5?$CB?$DN?5@ 00021b50     UiApp:BootMaint.obj
 0002:00000b80       ??_C@_0CD@EGLDNELE@mStartOpCodeHandle?5?$CB?$DN?5?$CI?$CIvoid?5?$CK?$CJ?5@ 00021b80     UiApp:BootMaint.obj
 0002:00000ba4       ??_C@_0CB@HCEMOFB@mEndOpCodeHandle?5?$CB?$DN?5?$CI?$CIvoid?5?$CK?$CJ?50?$CJ@ 00021ba4     UiApp:BootMaint.obj
 0002:00000bc8       ??_C@_0BP@KHCJJICF@MacAddressNode?5?$CB?$DN?5?$CI?$CIvoid?5?$CK?$CJ?50?$CJ?$AA@ 00021bc8     UiApp:DeviceManager.obj
 0002:00000be8       ??_C@_0DN@OGKDCOCB@q?3?2MdeModulePkg?2Application?2UiAp@ 00021be8     UiApp:DeviceManager.obj
 0002:00000c28       ??_C@_19IEFMLJON@?$AAM?$AAA?$AAC?$AA?3?$AA?$AA@ 00021c28     UiApp:DeviceManager.obj
 0002:00000c34       ??_C@_0BF@CBLMFKOC@Node?5?$CB?$DN?5?$CI?$CIvoid?5?$CK?$CJ?50?$CJ?$AA@ 00021c34     UiApp:DeviceManager.obj
 0002:00000c4c       ??_C@_0DA@BBLDGEIM@gDeviceManagerPrivate?4HiiHandle?5@ 00021c4c     UiApp:DeviceManager.obj
 0002:00000c7c       ??_C@_1M@MOFLFCEC@?$AA?$CF?$AAs?$AA?5?$AA?$CF?$AAs?$AA?$AA@ 00021c7c     UiApp:DeviceManager.obj
 0002:00000c88       ??_C@_0P@EPMCJAIP@Index?5?$DM?50x1000?$AA@ 00021c88     UiApp:DeviceManager.obj
 0002:00000c98       ??_C@_0CC@HFEIDHIP@gStringPackHandle?5?$CB?$DN?5?$CI?$CIvoid?5?$CK?$CJ?50@ 00021c98     UiApp:String.obj
 0002:00000cbc       ??_C@_0CL@ECKNIIBJ@q?3?2MdeModulePkg?2Application?2UiAp@ 00021cbc     UiApp:String.obj
 0002:00000ce8       ??_C@_0BJ@NJEGJHFI@LangCode?5?$CB?$DN?5?$CI?$CIvoid?5?$CK?$CJ?50?$CJ?$AA@ 00021ce8     UiApp:Language.obj
 0002:00000d04       ??_C@_0CN@GEJPCEBC@q?3?2MdeModulePkg?2Application?2UiAp@ 00021d04     UiApp:Language.obj
 0002:00000d34       ??_C@_0BK@FANDPBIH@?$CKLangCode?5?$CB?$DN?5?$CI?$CIvoid?5?$CK?$CJ?50?$CJ?$AA@ 00021d34     UiApp:Language.obj
 0002:00000d50       ??_C@_0IK@BBJPIDBO@BootOptionMenu?4MenuNumber?5?$DM?$DN?5?$CIsi@ 00021d50     UiApp:UpdatePage.obj
 0002:00000ddc       ??_C@_0DJ@ECGGDHEP@q?3?2MdeModulePkg?2Application?2UiAp@ 00021ddc     UiApp:UpdatePage.obj
 0002:00000e18       ??_C@_0JA@BIOKCMOO@DriverOptionMenu?4MenuNumber?5?$DM?$DN?5?$CI@ 00021e18     UiApp:UpdatePage.obj
 0002:00000ea8       ??_C@_0BN@BJDEDCNB@ConsoleCheck?5?$CB?$DN?5?$CI?$CIvoid?5?$CK?$CJ?50?$CJ?$AA@ 00021ea8     UiApp:UpdatePage.obj
 0002:00000ec8       ??_C@_0BM@ILMIEJOJ@OptionOrder?5?$CB?$DN?5?$CI?$CIvoid?5?$CK?$CJ?50?$CJ?$AA@ 00021ec8     UiApp:UpdatePage.obj
 0002:00000ee4       ??_C@_0CE@NLGPGPAN@DefaultOpCodeHandle?5?$CB?$DN?5?$CI?$CIvoid?5?$CK?$CJ@ 00021ee4     UiApp:UpdatePage.obj
 0002:00000f08       ??_C@_0BK@EKIGBGH@ModeToken?5?$CB?$DN?5?$CI?$CIvoid?5?$CK?$CJ?50?$CJ?$AA@ 00021f08     UiApp:UpdatePage.obj
 0002:00000f24       ??_C@_17CEOIGCFC@?$AA?5?$AAx?$AA?5?$AA?$AA@ 00021f24     UiApp:UpdatePage.obj
 0002:00000f2c       ??_C@_0DL@LPFLBFDF@q?3?2MdeModulePkg?2Application?2UiAp@ 00021f2c     UiApp:FileExplorer.obj
 0002:00000f68       ??_C@_0CE@MDBJFLCA@MenuNumber?5?$DM?5MenuOption?9?$DOMenuNum@ 00021f68     UiApp:BootOption.obj
 0002:00000f8c       ??_C@_0DJ@LPNHBKMK@q?3?2MdeModulePkg?2Application?2UiAp@ 00021f8c     UiApp:BootOption.obj
 0002:00000fc8       ??_C@_13FPGAJAPJ@?$AA?2?$AA?$AA@ 00021fc8     UiApp:BootOption.obj
 0002:00000fcc       ??_C@_1CI@JGIGCDAN@?$AAN?$AAO?$AA?5?$AAF?$AAI?$AAL?$AAE?$AA?5?$AAS?$AAY?$AAS?$AAT?$AAE?$AAM?$AA?5?$AAI?$AAN?$AAF?$AAO?$AA?$AA@ 00021fcc     UiApp:BootOption.obj
 0002:00000ff4       ??_C@_1CA@KOPNEOKK@?$AAN?$AAO?$AA?5?$AAV?$AAO?$AAL?$AAU?$AAM?$AAE?$AA?5?$AAL?$AAA?$AAB?$AAE?$AAL?$AA?$AA@ 00021ff4     UiApp:BootOption.obj
 0002:00001014       ??_C@_0CJ@CDKCBEKC@MenuEntry?9?$DODisplayString?5?$CB?$DN?5?$CI?$CIvo@ 00022014     UiApp:BootOption.obj
 0002:00001040       ??_C@_1BC@GMOFGFBO@?$AA?$CF?$AAs?$AA?0?$AA?5?$AA?$FL?$AA?$CF?$AAs?$AA?$FN?$AA?$AA@ 00022040     UiApp:BootOption.obj
 0002:00001054       ??_C@_1BO@INKEBDDP@?$AAL?$AAo?$AAa?$AAd?$AA?5?$AAF?$AAi?$AAl?$AAe?$AA?5?$AA?$FL?$AA?$CF?$AAs?$AA?$FN?$AA?$AA@ 00022054     UiApp:BootOption.obj
 0002:00001074       ??_C@_19ECGOGJPA@?$AA?$DM?$AA?$CF?$AAs?$AA?$DO?$AA?$AA@ 00022074     UiApp:BootOption.obj
 0002:00001080       ??_C@_1BE@CHCFCNKI@?$AAB?$AAo?$AAo?$AAt?$AAO?$AAr?$AAd?$AAe?$AAr?$AA?$AA@ 00022080     UiApp:BootOption.obj
 0002:00001094       ??_C@_1BC@HGEHGBBD@?$AAB?$AAo?$AAo?$AAt?$AAN?$AAe?$AAx?$AAt?$AA?$AA@ 00022094     UiApp:BootOption.obj
 0002:000010a8       ??_C@_1BC@HAMKBGJJ@?$AAB?$AAo?$AAo?$AAt?$AA?$CF?$AA0?$AA4?$AAx?$AA?$AA@ 000220a8     UiApp:BootOption.obj
 0002:000010bc       ??_C@_0BN@HMAFKBFF@?$CI?$CIvoid?5?$CK?$CJ?50?$CJ?5?$CB?$DN?5NewMenuEntry?$AA@ 000220bc     UiApp:BootOption.obj
 0002:000010dc       ??_C@_0CM@FNOIGNAK@NewLoadContext?9?$DODescription?5?$CB?$DN?5?$CI@ 000220dc     UiApp:BootOption.obj
 0002:00001108       ??_C@_0CN@PDJEMOOA@NewLoadContext?9?$DOFilePathList?5?$CB?$DN?5@ 00022108     UiApp:BootOption.obj
 0002:00001138       ??_C@_0CN@NNIEOKOB@NewLoadContext?9?$DOOptionalData?5?$CB?$DN?5@ 00022138     UiApp:BootOption.obj
 0002:00001168       ??_C@_0BE@LNIAOOBG@Str?5?$CB?$DN?5?$CI?$CIvoid?5?$CK?$CJ?50?$CJ?$AA@ 00022168     UiApp:BootOption.obj
 0002:0000117c       ??_C@_0BH@FMMHHFDB@TmpStr?5?$CB?$DN?5?$CI?$CIvoid?5?$CK?$CJ?50?$CJ?$AA@ 0002217c     UiApp:BootOption.obj
 0002:00001194       ??_C@_1BA@JFMJKBME@?$AA?$CF?$AAs?$AAO?$AAr?$AAd?$AAe?$AAr?$AA?$AA@ 00022194     UiApp:BootOption.obj
 0002:000011a4       ??_C@_1O@CJIOJFKI@?$AA?$CF?$AAs?$AA?$CF?$AA0?$AA4?$AAx?$AA?$AA@ 000221a4     UiApp:BootOption.obj
 0002:000011b4       ??_C@_0N@OGKCONEE@Option?5?$DN?5?$CFs?6?$AA@ 000221b4     UiApp:BootOption.obj
 0002:000011c4       ??_C@_19JCAOHIEH@?$AAB?$AAo?$AAo?$AAt?$AA?$AA@ 000221c4     UiApp:BootOption.obj
 0002:000011d0       ??_C@_1O@GAOCKAOK@?$AAD?$AAr?$AAi?$AAv?$AAe?$AAr?$AA?$AA@ 000221d0     UiApp:BootOption.obj
 0002:000011e0       ??_C@_1BI@PDMCFEDG@?$AAD?$AAr?$AAi?$AAv?$AAe?$AAr?$AAO?$AAr?$AAd?$AAe?$AAr?$AA?$AA@ 000221e0     UiApp:BootOption.obj
 0002:000011f8       ??_C@_1BG@IKNMHBCC@?$AAD?$AAr?$AAi?$AAv?$AAe?$AAr?$AA?$CF?$AA0?$AA4?$AAx?$AA?$AA@ 000221f8     UiApp:BootOption.obj
 0002:00001210       ??_C@_0BO@BFBMGIPH@BootOrderList?5?$CB?$DN?5?$CI?$CIvoid?5?$CK?$CJ?50?$CJ?$AA@ 00022210     UiApp:Variable.obj
 0002:00001230       ??_C@_0DH@HPDFDKJO@q?3?2MdeModulePkg?2Application?2UiAp@ 00022230     UiApp:Variable.obj
 0002:00001268       ??_C@_0CA@JHFJEHPL@DriverOrderList?5?$CB?$DN?5?$CI?$CIvoid?5?$CK?$CJ?50?$CJ?$AA@ 00022268     UiApp:Variable.obj
 0002:00001288       ??_C@_1O@MJHLOIFA@?$AAC?$AAo?$AAn?$AAO?$AAu?$AAt?$AA?$AA@ 00022288     UiApp:Variable.obj
 0002:00001298       ??_C@_1M@NFPEGKHA@?$AAC?$AAo?$AAn?$AAI?$AAn?$AA?$AA@ 00022298     UiApp:Variable.obj
 0002:000012a4       ??_C@_1O@JOJMCOJC@?$AAE?$AAr?$AAr?$AAO?$AAu?$AAt?$AA?$AA@ 000222a4     UiApp:Variable.obj
 0002:000012b8       ??_C@_0FO@MJCJADJK@NewTerminalContext?9?$DOTerminalType@ 000222b8     UiApp:Variable.obj
 0002:00001318       ??_C@_0CD@EFLNJIJO@TerminalDevicePath?5?$CB?$DN?5?$CI?$CIvoid?5?$CK?$CJ?5@ 00022318     UiApp:Variable.obj
 0002:0000133c       ??_C@_0CD@OOKBDLFK@NewDriverOrderList?5?$CB?$DN?5?$CI?$CIvoid?5?$CK?$CJ?5@ 0002233c     UiApp:Variable.obj
 0002:00001360       ??_C@_0CB@GFLKMHAE@NewBootOrderList?5?$CB?$DN?5?$CI?$CIvoid?5?$CK?$CJ?50?$CJ@ 00022360     UiApp:Variable.obj
 0002:00001388       ??_C@_0IO@COBKBBMM@BootOptionMenu?4MenuNumber?5?$DM?$DN?5?$CIsi@ 00022388     UiApp:Variable.obj
 0002:00001418       ??_C@_0JE@DLLMFIEP@DriverOptionMenu?4MenuNumber?5?$DM?$DN?5?$CI@ 00022418     UiApp:Variable.obj
 0002:000014ac       ??_C@_0DM@OJIOKAFN@q?3?2MdeModulePkg?2Application?2UiAp@ 000224ac     UiApp:ConsoleOption.obj
 0002:000014e8       ??_C@_1BC@OBFMLJLI@?$AAC?$AAo?$AAn?$AAI?$AAn?$AAD?$AAe?$AAv?$AA?$AA@ 000224e8     UiApp:ConsoleOption.obj
 0002:000014fc       ??_C@_1BE@INNAKDAF@?$AAC?$AAo?$AAn?$AAO?$AAu?$AAt?$AAD?$AAe?$AAv?$AA?$AA@ 000224fc     UiApp:ConsoleOption.obj
 0002:00001510       ??_C@_1BE@JFPOEAHF@?$AAE?$AAr?$AAr?$AAO?$AAu?$AAt?$AAD?$AAe?$AAv?$AA?$AA@ 00022510     UiApp:ConsoleOption.obj
 0002:00001524       ??_C@_0CO@MDCBKLCA@NewConsoleContext?9?$DODevicePath?5?$CB?$DN@ 00022524     UiApp:ConsoleOption.obj
 0002:00001554       ??_C@_0BF@CPBCKIGP@Dest?5?$CB?$DN?5?$CI?$CIvoid?5?$CK?$CJ?50?$CJ?$AA@ 00022554     UiApp:BmLib.obj
 0002:0000156c       ??_C@_0DE@KFHMNICI@q?3?2MdeModulePkg?2Application?2UiAp@ 0002256c     UiApp:BmLib.obj
 0002:000015a0       ??_C@_0CI@HLLBBHJN@q?3?2MdePkg?2Library?2DxePcdLib?2DxeP@ 000225a0     DxePcdLib:DxePcdLib.obj
 0002:000015c8       ??_C@_0BF@OOKDELHM@mPcd?5?$CB?$DN?5?$CI?$CIvoid?5?$CK?$CJ?50?$CJ?$AA@ 000225c8     DxePcdLib:DxePcdLib.obj
 0002:000015e0       ??_C@_0BH@IACGKAP@Buffer?5?$CB?$DN?5?$CI?$CIvoid?5?$CK?$CJ?50?$CJ?$AA@ 000225e0     DxePcdLib:DxePcdLib.obj
 0002:000015f8       ??_C@_0BH@LKMBFCBF@Format?5?$CB?$DN?5?$CI?$CIvoid?5?$CK?$CJ?50?$CJ?$AA@ 000225f8     PeiDxeDebugLibReportStatusCode:DebugLib.obj
 0002:00001610       ??_C@_0EN@CNOKPIHJ@q?3?2IntelFrameworkModulePkg?2Libra@ 00022610     PeiDxeDebugLibReportStatusCode:DebugLib.obj
 0002:00001660       ??_C@_0CI@HIINONDG@?$CICHAR8?5?$CK?$CJBaseListMarker?5?$DM?$DN?5Forma@ 00022660     PeiDxeDebugLibReportStatusCode:DebugLib.obj
 0002:00001688       ??_C@_0CL@OBMFBPED@Length?5?$DM?$DN?5?$CI0xFFFFFFFF?5?9?5?$CIUINTN?$CJB@ 00022688     BaseMemoryLibOptDxe:MemLibGuid.obj
 0002:000016b4       ??_C@_0DI@PHOMHDKH@?$CILength?5?9?51?$CJ?5?$DM?$DN?5?$CI0xFFFFFFFF?5?9?5?$CIU@ 000226b4     BaseMemoryLibOptDxe:CopyMemWrapper.obj
 0002:000016ec       ??_C@_0DH@PIHDLFLO@q?3?2MdePkg?2Library?2BaseMemoryLibO@ 000226ec     BaseMemoryLibOptDxe:CopyMemWrapper.obj
 0002:00001724       ??_C@_0DD@DCDOHCDJ@?$CILength?5?9?51?$CJ?5?$DM?$DN?5?$CI0xFFFFFFFF?5?9?5?$CIU@ 00022724     BaseMemoryLibOptDxe:CopyMemWrapper.obj
 0002:00001758       ??_C@_0CI@MNELLLEK@?$CB?$CIBuffer?5?$DN?$DN?5?$CI?$CIvoid?5?$CK?$CJ?50?$CJ?5?$CG?$CG?5Leng@ 00022758     BaseMemoryLibOptDxe:ZeroMemWrapper.obj
 0002:00001780       ??_C@_0DH@EMNBNEHJ@q?3?2MdePkg?2Library?2BaseMemoryLibO@ 00022780     BaseMemoryLibOptDxe:ZeroMemWrapper.obj
 0002:000017b8       ??_C@_0CC@JOEHDGKB@DestinationBuffer?5?$CB?$DN?5?$CI?$CIvoid?5?$CK?$CJ?50@ 000227b8     BaseMemoryLibOptDxe:CompareMemWrapper.obj
 0002:000017dc       ??_C@_0DK@BHHGEGGL@q?3?2MdePkg?2Library?2BaseMemoryLibO@ 000227dc     BaseMemoryLibOptDxe:CompareMemWrapper.obj
 0002:00001818       ??_C@_0BN@MDMCNBCC@SourceBuffer?5?$CB?$DN?5?$CI?$CIvoid?5?$CK?$CJ?50?$CJ?$AA@ 00022818     BaseMemoryLibOptDxe:CompareMemWrapper.obj
 0002:00001838       ??_C@_0CN@BPIPMCPJ@?$CILength?5?9?51?$CJ?5?$DM?$DN?5?$CI0xFFFFFFFF?5?9?5?$CIU@ 00022838     BaseMemoryLibOptDxe:SetMemWrapper.obj
 0002:00001868       ??_C@_0CO@LECKNDNC@?$CI?$CI?$CIUINTN?$CJBuffer?$CJ?5?$CG?5?$CIsizeof?5?$CIValu@ 00022868     BaseMemoryLibOptDxe:SetMem32Wrapper.obj
 0002:00001898       ??_C@_0CF@LEICOABD@?$CILength?5?$CG?5?$CIsizeof?5?$CIValue?$CJ?5?9?51?$CJ?$CJ?5@ 00022898     BaseMemoryLibOptDxe:SetMem32Wrapper.obj
 0002:000018c0       ??_C@_0EF@PCDGLKLI@q?3?2MdeModulePkg?2Library?2DxeRepor@ 000228c0     DxeReportStatusCodeLib:ReportStatusCodeLib.obj
 0002:00001908       ??_C@_0BM@HAIDGOCB@Description?5?$CB?$DN?5?$CI?$CIvoid?5?$CK?$CJ?50?$CJ?$AA@ 00022908     DxeReportStatusCodeLib:ReportStatusCodeLib.obj
 0002:00001924       ??_C@_0BL@JFODOCGB@DevicePath?5?$CB?$DN?5?$CI?$CIvoid?5?$CK?$CJ?50?$CJ?$AA@ 00022924     DxeReportStatusCodeLib:ReportStatusCodeLib.obj
 0002:00001940       ??_C@_0DN@HHIHPHHB@?$CB?$CI?$CIExtendedData?5?$DN?$DN?5?$CI?$CIvoid?5?$CK?$CJ?50?$CJ?$CJ@ 00022940     DxeReportStatusCodeLib:ReportStatusCodeLib.obj
 0002:00001980       ??_C@_0DN@BBBIFINB@?$CB?$CI?$CIExtendedData?5?$CB?$DN?5?$CI?$CIvoid?5?$CK?$CJ?50?$CJ?$CJ@ 00022980     DxeReportStatusCodeLib:ReportStatusCodeLib.obj
 0002:000019c0       ??_C@_0DI@MIEIGAOH@Status?5code?5extended?5data?5is?5too@ 000229c0     DxeReportStatusCodeLib:ReportStatusCodeLib.obj
 0002:000019f8       ??_C@_0BM@NLNKOJGD@Destination?5?$CB?$DN?5?$CI?$CIvoid?5?$CK?$CJ?50?$CJ?$AA@ 000229f8     BaseLib:String.obj
 0002:00001a14       ??_C@_0CD@OOJADBME@q?3?2MdePkg?2Library?2BaseLib?2String@ 00022a14     BaseLib:String.obj
 0002:00001a38       ??_C@_0CI@LLKACKFD@?$CI?$CIUINTN?$CJ?5Destination?5?$CG?50x0000000@ 00022a38     BaseLib:String.obj
 0002:00001a60       ??_C@_0DL@LFIMEMJP@Length?5?$DM?$DN?5_gPcd_FixedAtBuild_Pcd@ 00022a60     BaseLib:String.obj
 0002:00001a9c       ??_C@_0CD@BDCLIGHD@?$CI?$CIUINTN?$CJ?5String?5?$CG?50x00000001?$CJ?5?$DN?$DN@ 00022a9c     BaseLib:String.obj
 0002:00001ac0       ??_C@_0DK@EOJCOAME@Length?5?$DM?5_gPcd_FixedAtBuild_PcdM@ 00022ac0     BaseLib:String.obj
 0002:00001afc       ??_C@_0BL@JAAMOCAJ@StrSize?5?$CIFirstString?$CJ?5?$CB?$DN?50?$AA@ 00022afc     BaseLib:String.obj
 0002:00001b18       ??_C@_0BM@DALBOILC@StrSize?5?$CISecondString?$CJ?5?$CB?$DN?50?$AA@ 00022b18     BaseLib:String.obj
 0002:00001b34       ??_C@_0BG@KBNOLIGE@StrSize?5?$CIString?$CJ?5?$CB?$DN?50?$AA@ 00022b34     BaseLib:String.obj
 0002:00001b4c       ??_C@_0BM@NNBLOHJD@StrSize?5?$CISearchString?$CJ?5?$CB?$DN?50?$AA@ 00022b4c     BaseLib:String.obj
 0002:00001b68       ??_C@_0DJ@JJHGIFMP@Length?5?$DM?$DN?5_gPcd_FixedAtBuild_Pcd@ 00022b68     BaseLib:String.obj
 0002:00001ba4       ??_C@_0DI@MDIKFADO@Length?5?$DM?5_gPcd_FixedAtBuild_PcdM@ 00022ba4     BaseLib:String.obj
 0002:00001bdc       ??_C@_0BL@IKFBNFIL@AsciiStrSize?5?$CIFirstString?$CJ?$AA@ 00022bdc     BaseLib:String.obj
 0002:00001bf8       ??_C@_0BM@EDNOKLLE@AsciiStrSize?5?$CISecondString?$CJ?$AA@ 00022bf8     BaseLib:String.obj
 0002:00001c14       ??_C@_0BL@NNBEMOEP@AsciiStrSize?5?$CISource?$CJ?5?$CB?$DN?50?$AA@ 00022c14     BaseLib:String.obj
 0002:00001c30       ??_C@_0EA@ELKIMFNG@?$CIUINTN?$CJ?5?$CI?$CICHAR8?5?$CK?$CJ?5Destination?5?9@ 00022c30     BaseLib:String.obj
 0002:00001c70       ??_C@_0FG@JICIAIMJ@?$CIUINTN?$CJ?5?$CISource?5?9?5?$CICHAR8?5?$CK?$CJ?5Dest@ 00022c70     BaseLib:String.obj
 0002:00001cc8       ??_C@_0BL@KAGEINIP@StrSize?5?$CIReturnValue?$CJ?5?$CB?$DN?50?$AA@ 00022cc8     BaseLib:String.obj
 0002:00001ce4       ??_C@_0CH@OOIJJKEI@q?3?2MdePkg?2Library?2BaseLib?2SafeSt@ 00022ce4     BaseLib:SafeString.obj
 0002:00001d0c       ??_C@_0CD@COCJPGE@?$CI?$CIUINTN?$CJ?5Source?5?$CG?50x00000001?$CJ?5?$DN?$DN@ 00022d0c     BaseLib:SafeString.obj
 0002:00001d30       ??_C@_0BO@ECNIOIHG@?$CIDestination?5?$CB?$DN?5?$CI?$CIvoid?5?$CK?$CJ?50?$CJ?$CJ?$AA@ 00022d30     BaseLib:SafeString.obj
 0002:00001d50       ??_C@_0BJ@EAEEJIP@?$CISource?5?$CB?$DN?5?$CI?$CIvoid?5?$CK?$CJ?50?$CJ?$CJ?$AA@ 00022d50     BaseLib:SafeString.obj
 0002:00001d70       ??_C@_0EA@BBALOHPI@?$CIDestMax?5?$DM?$DN?5?$CI_gPcd_FixedAtBuild_@ 00022d70     BaseLib:SafeString.obj
 0002:00001db0       ??_C@_0P@PMIMLIHM@?$CIDestMax?5?$CB?$DN?50?$CJ?$AA@ 00022db0     BaseLib:SafeString.obj
 0002:00001dc0       ??_C@_0BG@EEGIIOKH@?$CIDestMax?5?$DO?5SourceLen?$CJ?$AA@ 00022dc0     BaseLib:SafeString.obj
 0002:00001dd8       ??_C@_0FH@PPBLBDBJ@InternalSafeStringNoStrOverlap?5?$CI@ 00022dd8     BaseLib:SafeString.obj
 0002:00001e30       ??_C@_0DP@PBOJGJC@?$CILength?5?$DM?$DN?5?$CI_gPcd_FixedAtBuild_P@ 00022e30     BaseLib:SafeString.obj
 0002:00001e70       ??_C@_0P@BHOOOJPD@?$CICopyLen?5?$CB?$DN?50?$CJ?$AA@ 00022e70     BaseLib:SafeString.obj
 0002:00001e80       ??_C@_0BG@BPGICNPK@?$CICopyLen?5?$DO?5SourceLen?$CJ?$AA@ 00022e80     BaseLib:SafeString.obj
 0002:00001e98       ??_C@_0FL@CDANCHFO@InternalSafeStringNoAsciiStrOver@ 00022e98     BaseLib:SafeString.obj
 0002:00001ef4       ??_C@_0CG@MHAECJIA@q?3?2MdePkg?2Library?2BaseLib?2Unalig@ 00022ef4     BaseLib:Unaligned.obj
 0002:00001f1c       ??_C@_0BF@NJNGJMPC@List?5?$CB?$DN?5?$CI?$CIvoid?5?$CK?$CJ?50?$CJ?$AA@ 00022f1c     BaseLib:LinkedList.obj
 0002:00001f34       ??_C@_0CH@NMOILDJB@q?3?2MdePkg?2Library?2BaseLib?2Linked@ 00022f34     BaseLib:LinkedList.obj
 0002:00001f5c       ??_C@_0CC@KDLPLAED@List?9?$DOForwardLink?5?$CB?$DN?5?$CI?$CIvoid?5?$CK?$CJ?50@ 00022f5c     BaseLib:LinkedList.obj
 0002:00001f80       ??_C@_0BP@IJJCCMAK@List?9?$DOBackLink?5?$CB?$DN?5?$CI?$CIvoid?5?$CK?$CJ?50?$CJ?$AA@ 00022f80     BaseLib:LinkedList.obj
 0002:00001fa0       ??_C@_0DG@IMEFJFAE@Count?5?$DM?5_gPcd_FixedAtBuild_PcdMa@ 00022fa0     BaseLib:LinkedList.obj
 0002:00001fd8       ??_C@_0BJ@NJABNCDK@ListHead?5?$CB?$DN?5?$CI?$CIvoid?5?$CK?$CJ?50?$CJ?$AA@ 00022fd8     BaseLib:LinkedList.obj
 0002:00001ff8       ??_C@_0EB@JGCKPMLP@InternalBaseLibIsNodeInList?5?$CILis@ 00022ff8     BaseLib:LinkedList.obj
 0002:0000203c       ??_C@_0DM@PHLIJEML@InternalBaseLibIsNodeInList?5?$CILis@ 0002303c     BaseLib:LinkedList.obj
 0002:00002078       ??_C@_0DM@NCFNNADL@InternalBaseLibIsNodeInList?5?$CILis@ 00023078     BaseLib:LinkedList.obj
 0002:000020b8       ??_C@_0EE@BFCMBGFO@InternalBaseLibIsNodeInList?5?$CILis@ 000230b8     BaseLib:LinkedList.obj
 0002:000020fc       ??_C@_0BF@NMBJJECB@?$CBIsListEmpty?5?$CIEntry?$CJ?$AA@ 000230fc     BaseLib:LinkedList.obj
 0002:00002114       ??_C@_0BN@COECPDCC@gImageHandle?5?$CB?$DN?5?$CI?$CIvoid?5?$CK?$CJ?50?$CJ?$AA@ 00023114     UefiBootServicesTableLib:UefiBootServicesTableLib.obj
 0002:00002138       ??_C@_0EG@IHBEIGJL@q?3?2MdePkg?2Library?2UefiBootServic@ 00023138     UefiBootServicesTableLib:UefiBootServicesTableLib.obj
 0002:00002180       ??_C@_0BE@DGNHAHIL@gST?5?$CB?$DN?5?$CI?$CIvoid?5?$CK?$CJ?50?$CJ?$AA@ 00023180     UefiBootServicesTableLib:UefiBootServicesTableLib.obj
 0002:00002194       ??_C@_0BE@BDFJLGLN@gBS?5?$CB?$DN?5?$CI?$CIvoid?5?$CK?$CJ?50?$CJ?$AA@ 00023194     UefiBootServicesTableLib:UefiBootServicesTableLib.obj
 0002:000021a8       ??_C@_0EA@JCDEKIGH@q?3?2MdePkg?2Library?2UefiMemoryAllo@ 000231a8     UefiMemoryAllocationLib:MemoryAllocationLib.obj
 0002:000021e8       ??_C@_0DE@FCAJAHCJ@AllocationSize?5?$DM?$DN?5?$CI0xFFFFFFFF?5?9?5@ 000231e8     UefiMemoryAllocationLib:MemoryAllocationLib.obj
 0002:0000221c       ??_C@_0DN@IGNAJAEL@q?3?2MdeModulePkg?2Library?2DxePrint@ 0002321c     DxePrintLibPrint2Protocol:PrintLib.obj
 0002:0000225c       ??_C@_0CA@LIIAFCNN@mPrint2Protocol?5?$CB?$DN?5?$CI?$CIvoid?5?$CK?$CJ?50?$CJ?$AA@ 0002325c     DxePrintLibPrint2Protocol:PrintLib.obj
 0002:0000227c       ??_C@_0BP@CHOJLGEH@BaseListMarker?5?$CB?$DN?5?$CI?$CIvoid?5?$CK?$CJ?50?$CJ?$AA@ 0002327c     DxePrintLibPrint2Protocol:PrintLib.obj
 0002:0000229c       ??_C@_0CB@NIHAJGJE@StrSize?5?$CI?$CICHAR16?5?$CK?$CJ?5Format?$CJ?5?$CB?$DN?50@ 0002329c     DxePrintLibPrint2Protocol:PrintLib.obj
 0002:000022c0       ??_C@_0BE@OBDFIHND@gRT?5?$CB?$DN?5?$CI?$CIvoid?5?$CK?$CJ?50?$CJ?$AA@ 000232c0     UefiRuntimeServicesTableLib:UefiRuntimeServicesTableLib.obj
 0002:000022d8       ??_C@_0EM@DLKNJEFG@q?3?2MdePkg?2Library?2UefiRuntimeSer@ 000232d8     UefiRuntimeServicesTableLib:UefiRuntimeServicesTableLib.obj
 0002:00002324       _mUefiDevicePathLibEndDevicePath 00023324     UefiDevicePathLibDevicePathProtocol:UefiDevicePathLib.obj
 0002:00002328       ??_C@_0EK@PAKOFLDC@q?3?2MdePkg?2Library?2UefiDevicePath@ 00023328     UefiDevicePathLibDevicePathProtocol:UefiDevicePathLib.obj
 0002:00002374       ??_C@_0DC@CNNBPJA@mDevicePathLibDevicePathUtilitie@ 00023374     UefiDevicePathLibDevicePathProtocol:UefiDevicePathLib.obj
 0002:000023a8       ??_C@_0EH@ENCEEKKL@?$CILength?5?$DO?$DN?5sizeof?5?$CIEFI_DEVICE_PA@ 000233a8     UefiDevicePathLibDevicePathProtocol:UefiDevicePathLib.obj
 0002:000023f0       ??_C@_0BF@MBJFHGBE@Size?5?$CB?$DN?5?$CI?$CIvoid?5?$CK?$CJ?50?$CJ?$AA@ 000233f0     UefiDevicePathLibDevicePathProtocol:UefiDevicePathLib.obj
 0002:00002408       ??_C@_0BK@PPOBBAMB@TableGuid?5?$CB?$DN?5?$CI?$CIvoid?5?$CK?$CJ?50?$CJ?$AA@ 00023408     UefiLib:UefiLib.obj
 0002:00002424       ??_C@_0CE@KFLJGPMN@q?3?2MdePkg?2Library?2UefiLib?2UefiLi@ 00023424     UefiLib:UefiLib.obj
 0002:00002448       ??_C@_0BG@JDKEGFNB@Table?5?$CB?$DN?5?$CI?$CIvoid?5?$CK?$CJ?50?$CJ?$AA@ 00023448     UefiLib:UefiLib.obj
 0002:00002460       ??_C@_0BO@IJOPPPFL@Lock?9?$DOLock?5?$DN?$DN?5EfiLockReleased?$AA@ 00023460     UefiLib:UefiLib.obj
 0002:00002480       ??_C@_0BO@FHNOFLFJ@Lock?9?$DOLock?5?$DN?$DN?5EfiLockAcquired?$AA@ 00023480     UefiLib:UefiLib.obj
 0002:000024a0       ??_C@_0EG@GOBFPEEP@Name?5?$CB?$DN?5?$CI?$CIvoid?5?$CK?$CJ?50?$CJ?5?$CG?$CG?5Guid?5?$CB?$DN?5@ 000234a0     UefiLib:UefiLib.obj
 0002:000024e8       ??_C@_0BH@FMEOEIBC@?$CKValue?5?$CB?$DN?5?$CI?$CIvoid?5?$CK?$CJ?50?$CJ?$AA@ 000234e8     UefiLib:UefiLib.obj
 0002:00002500       ??_C@_0CD@OLFKAJF@SupportedLanguages?5?$CB?$DN?5?$CI?$CIvoid?5?$CK?$CJ?5@ 00023500     UefiLib:UefiLib.obj
 0002:00002524       ??_C@_0BD@BHENKNKP@NumberOfLines?5?$CB?$DN?50?$AA@ 00023524     UefiLib:Console.obj
 0002:00002538       ??_C@_0CE@NOGDAMJI@q?3?2MdePkg?2Library?2UefiLib?2Consol@ 00023538     UefiLib:Console.obj
 0002:0000255c       ??_C@_0P@ICDOOCHP@MaxLength?5?$CB?$DN?50?$AA@ 0002355c     UefiLib:Console.obj
 0002:0000256c       ??_C@_0BF@DMEONNDO@Line?5?$CB?$DN?5?$CI?$CIvoid?5?$CK?$CJ?50?$CJ?$AA@ 0002356c     UefiLib:Console.obj
 0002:00002584       ??_C@_0BK@IHAIHFJE@TmpString?5?$CB?$DN?5?$CI?$CIvoid?5?$CK?$CJ?50?$CJ?$AA@ 00023584     UefiLib:Console.obj
 0002:000025a0       ??_C@_17LGKOMLJ@?$AA?4?$AA?4?$AA?4?$AA?$AA@ 000235a0     UefiLib:Console.obj
 0002:000025a8       ??_C@_0CF@EEAPHGAM@q?3?2MdePkg?2Library?2DxeHobLib?2HobL@ 000235a8     DxeHobLib:HobLib.obj
 0002:000025d0       ??_C@_0BJ@OBFMLLDO@mHobList?5?$CB?$DN?5?$CI?$CIvoid?5?$CK?$CJ?50?$CJ?$AA@ 000235d0     DxeHobLib:HobLib.obj
 0002:000025ec       ??_C@_0BJ@NOLLDKJB@HobStart?5?$CB?$DN?5?$CI?$CIvoid?5?$CK?$CJ?50?$CJ?$AA@ 000235ec     DxeHobLib:HobLib.obj
 0002:00002608       ??_C@_1BC@DPOIABCP@?$AAE?$AAF?$AAI?$AAD?$AAe?$AAb?$AAu?$AAg?$AA?$AA@ 00023608     DxeDebugPrintErrorLevelLib:DxeDebugPrintErrorLevelLib.obj
 0002:00002620       ??_C@_0EA@PLELPBKG@q?3?2MdeModulePkg?2Library?2UefiHiiS@ 00023620     UefiHiiServicesLib:UefiHiiServicesLib.obj
 0002:00002660       ??_C@_0DM@OJLFAKBE@q?3?2MdePkg?2Library?2DxeServicesTab@ 00023660     DxeServicesTableLib:DxeServicesTableLib.obj
 0002:0000269c       ??_C@_0BE@IOIFLNKO@gDS?5?$CB?$DN?5?$CI?$CIvoid?5?$CK?$CJ?50?$CJ?$AA@ 0002369c     DxeServicesTableLib:DxeServicesTableLib.obj
 0002:000026b0       _mConfigHdrTemplate        000236b0     UefiHiiLib:HiiLib.obj
 0002:00002720       _mEndOfPakageList          00023720     UefiHiiLib:HiiLib.obj
 0002:00002724       ??_C@_0CM@DFDCAJNC@q?3?2MdeModulePkg?2Library?2UefiHiiL@ 00023724     UefiHiiLib:HiiLib.obj
 0002:00002750       ??_C@_0CA@OEKIMLLB@PackageListGuid?5?$CB?$DN?5?$CI?$CIvoid?5?$CK?$CJ?50?$CJ?$AA@ 00023750     UefiHiiLib:HiiLib.obj
 0002:00002770       ??_C@_0BN@EHPNHAIF@ConfigString?5?$CB?$DN?5?$CI?$CIvoid?5?$CK?$CJ?50?$CJ?$AA@ 00023770     UefiHiiLib:HiiLib.obj
 0002:00002790       ??_C@_0BG@MJAHJKJ@Block?5?$CB?$DN?5?$CI?$CIvoid?5?$CK?$CJ?50?$CJ?$AA@ 00023790     UefiHiiLib:HiiLib.obj
 0002:000027a8       ??_C@_1M@DPLGJLCD@?$AAG?$AAU?$AAI?$AAD?$AA?$DN?$AA?$AA@ 000237a8     UefiHiiLib:HiiLib.obj
 0002:000027b4       ??_C@_1O@FMIENBLJ@?$AA?$CG?$AAN?$AAA?$AAM?$AAE?$AA?$DN?$AA?$AA@ 000237b4     UefiHiiLib:HiiLib.obj
 0002:000027c4       ??_C@_1O@GGMHNGIF@?$AA?$CG?$AAP?$AAA?$AAT?$AAH?$AA?$DN?$AA?$AA@ 000237c4     UefiHiiLib:HiiLib.obj
 0002:000027d4       ??_C@_0BM@LENJOOBF@FirstString?5?$CB?$DN?5?$CI?$CIvoid?5?$CK?$CJ?50?$CJ?$AA@ 000237d4     UefiHiiLib:HiiLib.obj
 0002:000027f0       ??_C@_0BN@CGMEJHHH@SecondString?5?$CB?$DN?5?$CI?$CIvoid?5?$CK?$CJ?50?$CJ?$AA@ 000237f0     UefiHiiLib:HiiLib.obj
 0002:00002810       ??_C@_0CC@BCKDEPBB@StartSearchString?5?$CB?$DN?5?$CI?$CIvoid?5?$CK?$CJ?50@ 00023810     UefiHiiLib:HiiLib.obj
 0002:00002834       ??_C@_0CB@NPMPBLHL@StopSearchString?5?$CB?$DN?5?$CI?$CIvoid?5?$CK?$CJ?50?$CJ@ 00023834     UefiHiiLib:HiiLib.obj
 0002:00002858       ??_C@_0BK@LFDBOAFJ@ConfigHdr?5?$CB?$DN?5?$CI?$CIvoid?5?$CK?$CJ?50?$CJ?$AA@ 00023858     UefiHiiLib:HiiLib.obj
 0002:00002874       ??_C@_1M@IDEFLMF@?$AA?$CF?$AAs?$AA?$CG?$AA?$CF?$AAs?$AA?$AA@ 00023874     UefiHiiLib:HiiLib.obj
 0002:00002880       _mHiiDefaultTypeToWidth    00023880     UefiHiiLib:HiiLib.obj
 0002:00002888       ??_C@_0BN@OKKMNGPH@OpCodeHandle?5?$CB?$DN?5?$CI?$CIvoid?5?$CK?$CJ?50?$CJ?$AA@ 00023888     UefiHiiLib:HiiLib.obj
 0002:000028a8       ??_C@_0BP@IOABAFLF@OpCodeTemplate?5?$CB?$DN?5?$CI?$CIvoid?5?$CK?$CJ?50?$CJ?$AA@ 000238a8     UefiHiiLib:HiiLib.obj
 0002:000028c8       ??_C@_0CF@DPHCOLMP@?$CIOpCodeSize?5?$CL?5ExtensionSize?$CJ?5?$DM?$DN?5@ 000238c8     UefiHiiLib:HiiLib.obj
 0002:000028f0       ??_C@_0BK@JGHNIOOD@RawBuffer?5?$CB?$DN?5?$CI?$CIvoid?5?$CK?$CJ?50?$CJ?$AA@ 000238f0     UefiHiiLib:HiiLib.obj
 0002:0000290c       ??_C@_0CA@JCKPEJCB@RawOpCodeHandle?5?$CB?$DN?5?$CI?$CIvoid?5?$CK?$CJ?50?$CJ?$AA@ 0002390c     UefiHiiLib:HiiLib.obj
 0002:0000292c       ??_C@_0M@HDMCLEDO@Type?5?$DM?50x08?$AA@ 0002392c     UefiHiiLib:HiiLib.obj
 0002:00002938       ??_C@_0CP@JCOCHGHI@?$CIQuestionFlags?5?$CG?5?$CI?$HO?$CI0x01?5?$HM?50x04?5@ 00023938     UefiHiiLib:HiiLib.obj
 0002:00002968       ??_C@_0DG@MEIEPFMB@?$CIQuestionFlags?5?$CG?5?$CI?$HO?$CI0x01?5?$HM?50x04?5@ 00023968     UefiHiiLib:HiiLib.obj
 0002:000029a0       ??_C@_0CP@FEDOFMGH@q?3?2MdeModulePkg?2Library?2UefiHiiL@ 000239a0     UefiHiiLib:HiiString.obj
 0002:000029d0       ??_C@_06PLDEFKP@x?9UEFI?$AA@ 000239d0     UefiHiiLib:HiiString.obj
 0002:000029d8       ??_C@_0O@EMMLPDMJ@StringId?5?$CB?$DN?50?$AA@ 000239d8     UefiHiiLib:HiiString.obj
 0002:000029e6       ??_C@_00CNPNBAHC@?$AA@     000239e6     UefiHiiLib:HiiString.obj
 0002:000029e8       ??_C@_0DB@FEJNHADE@q?3?2MdeModulePkg?2Library?2UefiHiiL@ 000239e8     UefiHiiLib:HiiLanguage.obj
 0002:00002a1c       ??_C@_0DE@NPLAMEHP@q?3?2MdeModulePkg?2Library?2UefiBoot@ 00023a1c     UefiBootManagerLib:BmBoot.obj
 0002:00002a50       ??_C@_0DG@JBPPOHBO@OptionToFind?9?$DOOptionNumber?5?$DN?$DN?5Bo@ 00023a50     UefiBootManagerLib:BmBoot.obj
 0002:00002a88       ??_C@_0DD@MBGDIJCD@Length?5?$DN?$DN?5ModelNameLength?5?$CL?5Seri@ 00023a88     UefiBootManagerLib:BmBoot.obj
 0002:00002abc       ??_C@_1O@CLMODHEM@?$AAF?$AAl?$AAo?$AAp?$AAp?$AAy?$AA?$AA@ 00023abc     UefiBootManagerLib:BmBoot.obj
 0002:00002acc       ??_C@_1BE@CAANMHKL@?$AAD?$AAV?$AAD?$AA?1?$AAC?$AAD?$AAR?$AAO?$AAM?$AA?$AA@ 00023acc     UefiBootManagerLib:BmBoot.obj
 0002:00002ae0       ??_C@_1BG@FNOOENMH@?$AAH?$AAa?$AAr?$AAd?$AA?5?$AAD?$AAr?$AAi?$AAv?$AAe?$AA?$AA@ 00023ae0     UefiBootManagerLib:BmBoot.obj
 0002:00002af8       ??_C@_1BG@PDJIKBEG@?$AAU?$AAS?$AAB?$AA?5?$AAD?$AAe?$AAv?$AAi?$AAc?$AAe?$AA?$AA@ 00023af8     UefiBootManagerLib:BmBoot.obj
 0002:00002b10       ??_C@_1BI@NPAIJFIJ@?$AAS?$AAC?$AAS?$AAI?$AA?5?$AAD?$AAe?$AAv?$AAi?$AAc?$AAe?$AA?$AA@ 00023b10     UefiBootManagerLib:BmBoot.obj
 0002:00002b28       ??_C@_1BO@NNOGFLGA@?$AAR?$AAe?$AAm?$AAo?$AAv?$AAa?$AAb?$AAl?$AAe?$AA?5?$AAD?$AAi?$AAs?$AAk?$AA?$AA@ 00023b28     UefiBootManagerLib:BmBoot.obj
 0002:00002b48       ??_C@_1BI@IIOANEKN@?$AAM?$AAi?$AAs?$AAc?$AA?5?$AAD?$AAe?$AAv?$AAi?$AAc?$AAe?$AA?$AA@ 00023b48     UefiBootManagerLib:BmBoot.obj
 0002:00002b60       ??_C@_1BA@IFBJBPAK@?$AAN?$AAe?$AAt?$AAw?$AAo?$AAr?$AAk?$AA?$AA@ 00023b60     UefiBootManagerLib:BmBoot.obj
 0002:00002b70       ??_C@_19ECIOKAPM@?$AAH?$AAt?$AAt?$AAp?$AA?$AA@ 00023b70     UefiBootManagerLib:BmBoot.obj
 0002:00002b7c       ??_C@_1CM@CCDJEPCI@?$AAN?$AAo?$AAn?$AA?9?$AAB?$AAl?$AAo?$AAc?$AAk?$AA?5?$AAB?$AAo?$AAo?$AAt?$AA?5?$AAD?$AAe?$AAv?$AAi?$AAc?$AAe?$AA?$AA@ 00023b7c     UefiBootManagerLib:BmBoot.obj
 0002:00002ba8       ??_C@_0BF@OIGBEABJ@Temp?5?$CB?$DN?5?$CI?$CIvoid?5?$CK?$CJ?50?$CJ?$AA@ 00023ba8     UefiBootManagerLib:BmBoot.obj
 0002:00002bc0       ??_C@_0CD@NNLEHLIP@DefaultDescription?5?$CB?$DN?5?$CI?$CIvoid?5?$CK?$CJ?5@ 00023bc0     UefiBootManagerLib:BmBoot.obj
 0002:00002be4       ??_C@_0CB@FPENLMEA@UsbIoHandleCount?5?$CB?$DN?5?$CI?$CIvoid?5?$CK?$CJ?50?$CJ@ 00023be4     UefiBootManagerLib:BmBoot.obj
 0002:00002c08       ??_C@_19GDALFLBC@?$AAH?$AAD?$AAD?$AAP?$AA?$AA@ 00023c08     UefiBootManagerLib:BmBoot.obj
 0002:00002c14       ??_C@_0CB@HNPPGGEL@IsDevicePathEnd?5?$CITempDevicePath?$CJ@ 00023c14     UefiBootManagerLib:BmBoot.obj
 0002:00002c38       ??_C@_1CO@KKPDPHBM@?$AA?2?$AAE?$AAF?$AAI?$AA?2?$AAB?$AAO?$AAO?$AAT?$AA?2?$AAB?$AAO?$AAO?$AAT?$AAI?$AAA?$AA3?$AA2?$AA?4?$AAE?$AAF?$AAI?$AA?$AA@ 00023c38     UefiBootManagerLib:BmBoot.obj
 0002:00002c68       ??_C@_0FH@HJCHECGL@?$CIFilePath?5?$CB?$DN?5?$CI?$CIvoid?5?$CK?$CJ?50?$CJ?$CJ?5?$CG?$CG?5?$CIF@ 00023c68     UefiBootManagerLib:BmBoot.obj
 0002:00002cc0       ??_C@_0DM@POBOKFGH@?$FLBds?$FN?5Failed?5to?5create?5Boot?$CD?$CD?$CD?$CD?5@ 00023cc0     UefiBootManagerLib:BmBoot.obj
 0002:00002cfc       ??_C@_1BI@LBNGELID@?$AAB?$AAo?$AAo?$AAt?$AAC?$AAu?$AAr?$AAr?$AAe?$AAn?$AAt?$AA?$AA@ 00023cfc     UefiBootManagerLib:BmBoot.obj
 0002:00002d14       ??_C@_0CC@HMPNCCAJ@?$FLBds?$FN?5Booting?5Boot?5Manager?5Menu?4@ 00023d14     UefiBootManagerLib:BmBoot.obj
 0002:00002d38       ??_C@_0BK@PBBCGBIN@?$FLBds?$FN?5DevicePath?5expand?3?5?$AA@ 00023d38     UefiBootManagerLib:BmBoot.obj
 0002:00002d54       ??_C@_04BBDFLMDN@?5?9?$DO?5?$AA@ 00023d54     UefiBootManagerLib:BmBoot.obj
 0002:00002d5c       ??_C@_01EEMJAFIK@?6?$AA@   00023d5c     UefiBootManagerLib:BmBoot.obj
 0002:00002d60       ??_C@_0CH@MAENAIDI@?$FLBds?$FNBooting?5from?5unknown?5device@ 00023d60     UefiBootManagerLib:BmBoot.obj
 0002:00002d88       ??_C@_0BB@BJMHKPKN@?$FLBds?$FNBooting?5?$CFs?6?$AA@ 00023d88     UefiBootManagerLib:BmBoot.obj
 0002:00002d9c       ??_C@_0BK@CCNIJCHI@Image?5Return?5Status?5?$DN?5?$CFr?6?$AA@ 00023d9c     UefiBootManagerLib:BmBoot.obj
 0002:00002db8       ??_C@_0DO@DLINHPON@Status?5?$DN?$DN?50?5?$HM?$HM?5Status?5?$DN?$DN?5?$CI?$CIRETUR@ 00023db8     UefiBootManagerLib:BmBoot.obj
 0002:00002df8       ??_C@_0BI@HAGDMNKK@Visited?5?$CB?$DN?5?$CI?$CIvoid?5?$CK?$CJ?50?$CJ?$AA@ 00023df8     UefiBootManagerLib:BmBoot.obj
 0002:00002e10       ??_C@_1M@DJFDNGE@?$AA?$CF?$AAs?$AA?5?$AA?$CF?$AAd?$AA?$AA@ 00023e10     UefiBootManagerLib:BmBoot.obj
 0002:00002e1c       ??_C@_0CA@CKEJEPEJ@BootOptionCount?5?$CB?$DN?5?$CI?$CIvoid?5?$CK?$CJ?50?$CJ?$AA@ 00023e1c     UefiBootManagerLib:BmBoot.obj
 0002:00002e3c       ??_C@_0BM@DJHLFDEF@BootOptions?5?$CB?$DN?5?$CI?$CIvoid?5?$CK?$CJ?50?$CJ?$AA@ 00023e3c     UefiBootManagerLib:BmBoot.obj
 0002:00002e58       ??_C@_1BK@CHMLNGLH@?$AAS?$AAy?$AAs?$AAP?$AAr?$AAe?$AAp?$AAO?$AAr?$AAd?$AAe?$AAr?$AA?$AA@ 00023e58     UefiBootManagerLib:BmLoadOption.obj
 0002:00002e74       ??_C@_1BA@IBFPPJON@?$AAS?$AAy?$AAs?$AAP?$AAr?$AAe?$AAp?$AA?$AA@ 00023e74     UefiBootManagerLib:BmLoadOption.obj
 0002:00002e84       ??_C@_0DK@MABAFBGB@q?3?2MdeModulePkg?2Library?2UefiBoot@ 00023e84     UefiBootManagerLib:BmLoadOption.obj
 0002:00002ec0       ??_C@_0CB@PFDEGLPD@FreeOptionNumber?5?$CB?$DN?5?$CI?$CIvoid?5?$CK?$CJ?50?$CJ@ 00023ec0     UefiBootManagerLib:BmLoadOption.obj
 0002:00002ee8       ??_C@_0HK@DHJNPELJ@LoadOptionType?5?$DN?$DN?5LoadOptionType@ 00023ee8     UefiBootManagerLib:BmLoadOption.obj
 0002:00002f68       ??_C@_0GP@HFLIMAAP@?$CIOptionOrder?5?$CB?$DN?5?$CI?$CIvoid?5?$CK?$CJ?50?$CJ?5?$CG?$CG?5@ 00023f68     UefiBootManagerLib:BmLoadOption.obj
 0002:00002fd8       ??_C@_0BI@HMGPIBBB@OptionNumber?5?$DM?$DN?50x10000?$AA@ 00023fd8     UefiBootManagerLib:BmLoadOption.obj
 0002:00002ff0       ??_C@_0BJ@DLOFCCCI@Variable?5?$CB?$DN?5?$CI?$CIvoid?5?$CK?$CJ?50?$CJ?$AA@ 00023ff0     UefiBootManagerLib:BmLoadOption.obj
 0002:0000300c       ??_C@_0BP@NMMDNJFN@NewOptionOrder?5?$CB?$DN?5?$CI?$CIvoid?5?$CK?$CJ?50?$CJ?$AA@ 0002400c     UefiBootManagerLib:BmLoadOption.obj
 0002:0000302c       ??_C@_0CM@MAOCOHA@String?5?$CB?$DN?5?$CI?$CIvoid?5?$CK?$CJ?50?$CJ?5?$CG?$CG?5MaxStr@ 0002402c     UefiBootManagerLib:BmLoadOption.obj
 0002:00003058       ??_C@_0BI@BEIPAHPN@Options?5?$CB?$DN?5?$CI?$CIvoid?5?$CK?$CJ?50?$CJ?$AA@ 00024058     UefiBootManagerLib:BmLoadOption.obj
 0002:00003070       ??_C@_0EN@EEPBAEH@?$FLBds?$FN?5?$CFs?5doesn?8t?5exist?5?9?5Update?5@ 00024070     UefiBootManagerLib:BmLoadOption.obj
 0002:000030c0       ??_C@_0DC@GPHPCJCG@Options?$FLOptionIndex?$FN?4OptionNumbe@ 000240c0     UefiBootManagerLib:BmLoadOption.obj
 0002:000030f8       ??_C@_0EP@CPFHHOMB@?$CI?$CI?$CIINTN?$CJ?$CIRETURN_STATUS?$CJ?$CIStatus?$CJ?$CJ@ 000240f8     UefiBootManagerLib:BmConnect.obj
 0002:00003148       ??_C@_0DH@CGFNLILO@q?3?2MdeModulePkg?2Library?2UefiBoot@ 00024148     UefiBootManagerLib:BmConnect.obj
 0002:00003180       ??_C@_1CA@LMENMPKC@?$AAR?$AAe?$AAb?$AAo?$AAo?$AAt?$AA?5?$AAR?$AAe?$AAq?$AAu?$AAi?$AAr?$AAe?$AAd?$AA?$AA@ 00024180     UefiBootManagerLib:BmDriverHealth.obj
 0002:000031a0       ??_C@_1CG@MFKNOOC@?$AAR?$AAe?$AAc?$AAo?$AAn?$AAn?$AAe?$AAc?$AAt?$AA?5?$AAR?$AAe?$AAq?$AAu?$AAi?$AAr?$AAe?$AAd?$AA?$AA@ 000241a0     UefiBootManagerLib:BmDriverHealth.obj
 0002:000031c8       ??_C@_1O@GCADHOOL@?$AAF?$AAa?$AAi?$AAl?$AAe?$AAd?$AA?$AA@ 000241c8     UefiBootManagerLib:BmDriverHealth.obj
 0002:000031d8       ??_C@_1CO@FBBOCFDH@?$AAC?$AAo?$AAn?$AAf?$AAi?$AAg?$AAu?$AAr?$AAa?$AAt?$AAi?$AAo?$AAn?$AA?5?$AAR?$AAe?$AAq?$AAu?$AAi?$AAr?$AAe?$AAd?$AA?$AA@ 000241d8     UefiBootManagerLib:BmDriverHealth.obj
 0002:00003208       ??_C@_1CA@MECBMJF@?$AAR?$AAe?$AAp?$AAa?$AAi?$AAr?$AA?5?$AAR?$AAe?$AAq?$AAu?$AAi?$AAr?$AAe?$AAd?$AA?$AA@ 00024208     UefiBootManagerLib:BmDriverHealth.obj
 0002:00003228       ??_C@_1BA@OEPBAFIJ@?$AAH?$AAe?$AAa?$AAl?$AAt?$AAh?$AAy?$AA?$AA@ 00024228     UefiBootManagerLib:BmDriverHealth.obj
 0002:00003238       ??_C@_19BALNHBBC@?$AAL?$AAa?$AAn?$AAg?$AA?$AA@ 00024238     UefiBootManagerLib:BmDriverHealth.obj
 0002:00003244       ??_C@_03LKLGDMJI@eng?$AA@  00024244     UefiBootManagerLib:BmDriverHealth.obj
 0002:00003248       ??_C@_05JJLPJMLG@en?9US?$AA@ 00024248     UefiBootManagerLib:BmDriverHealth.obj
 0002:00003250       ??_C@_0BA@PJPGFCCB@Controller?3?5?$CFs?6?$AA@ 00024250     UefiBootManagerLib:BmDriverHealth.obj
 0002:00003260       ??_C@_1CA@PLAOFDKP@?$AAC?$AAo?$AAn?$AAt?$AAr?$AAo?$AAl?$AAl?$AAe?$AAr?$AA?3?$AA?5?$AA?$CF?$AAs?$AA?6?$AA?$AA@ 00024260     UefiBootManagerLib:BmDriverHealth.obj
 0002:00003280       ??_C@_1M@IANLBCIB@?$AA?5?$AA?5?$AA?$CF?$AAs?$AA?6?$AA?$AA@ 00024280     UefiBootManagerLib:BmDriverHealth.obj
 0002:0000328c       ??_C@_05LDOEBFOB@?5?5?$CFs?6?$AA@ 0002428c     UefiBootManagerLib:BmDriverHealth.obj
 0002:00003294       ??_C@_0BK@NGFIGLGA@?$FLBDS?$FNRepairNotify?3?5?$CFd?1?$CFd?6?$AA@ 00024294     UefiBootManagerLib:BmDriverHealth.obj
 0002:000032b0       ??_C@_1DE@KPAEMAID@?$AA?$FL?$AAB?$AAD?$AAS?$AA?$FN?$AAR?$AAe?$AAp?$AAa?$AAi?$AAr?$AAN?$AAo?$AAt?$AAi?$AAf?$AAy?$AA?3?$AA?5?$AA?$CF?$AAd?$AA?1?$AA?$CF?$AAd?$AA?6?$AA?$AA@ 000242b0     UefiBootManagerLib:BmDriverHealth.obj
 0002:000032e4       ??_C@_0CD@BOOHEENM@DriverHealthHandle?5?$CB?$DN?5?$CI?$CIvoid?5?$CK?$CJ?5@ 000242e4     UefiBootManagerLib:BmDriverHealth.obj
 0002:00003308       ??_C@_0DM@PPFBCDHO@q?3?2MdeModulePkg?2Library?2UefiBoot@ 00024308     UefiBootManagerLib:BmDriverHealth.obj
 0002:00003344       ??_C@_0CC@KGLGCPCA@?$CKDriverHealthInfo?5?$CB?$DN?5?$CI?$CIvoid?5?$CK?$CJ?50@ 00024344     UefiBootManagerLib:BmDriverHealth.obj
 0002:00003368       ??_C@_0CE@MFGOGKIA@DriverHealthHandles?5?$CB?$DN?5?$CI?$CIvoid?5?$CK?$CJ@ 00024368     UefiBootManagerLib:BmDriverHealth.obj
 0002:0000338c       ??_C@_0P@JFBCBHIC@?$CF02d?3?5?$CFs?5?9?5?$CFs?6?$AA@ 0002438c     UefiBootManagerLib:BmDriverHealth.obj
 0002:0000339c       ??_C@_0DO@HEBFPBBH@?$FLBDS?$FN?5One?5of?5the?5Driver?5Health?5i@ 0002439c     UefiBootManagerLib:BmDriverHealth.obj
 0002:000033dc       ??_C@_02DKCKIIND@?$CFs?$AA@ 000243dc     UefiBootManagerLib:BmMisc.obj
 0002:000033e0       ??_C@_0DG@FKFNMDOJ@q?3?2MdeModulePkg?2Library?2UefiBoot@ 000243e0     UefiBootManagerLib:BmHotkey.obj
 0002:00003418       ??_C@_0CC@JHGOKCAM@?$FLBds?$FNBmHotkeyCallback?3?5?$CF04x?3?$CF04x@ 00024418     UefiBootManagerLib:BmHotkey.obj
 0002:00003440       ??_C@_0EO@PGCGMAA@Hotkey?9?$DOWaitingKey?5?$DM?5?$CIsizeof?5?$CIHo@ 00024440     UefiBootManagerLib:BmHotkey.obj
 0002:00003490       ??_C@_0CB@PFLHPPPA@?$FLBds?$FNHotkey?5for?5?$CFs?5pressed?5?9?5?$CFr?6@ 00024490     UefiBootManagerLib:BmHotkey.obj
 0002:000034b4       ??_C@_0BM@PIEMCHHP@?$FLBds?$FNContinue?5key?5pressed?$CB?6?$AA@ 000244b4     UefiBootManagerLib:BmHotkey.obj
 0002:000034d0       ??_C@_0CI@IEECCPEN@?$FLBds?$FNUnregisterKeyNotify?3?5?$CF04x?1?$CF@ 000244d0     UefiBootManagerLib:BmHotkey.obj
 0002:000034f8       ??_C@_0BL@ELKNAPIO@?$FLBds?$FNStop?5Hotkey?5Service?$CB?6?$AA@ 000244f8     UefiBootManagerLib:BmHotkey.obj
 0002:00003514       ??_C@_0DH@OLDKMBPN@q?3?2MdeModulePkg?2Library?2UefiBoot@ 00024514     UefiBootManagerLib:BmConsole.obj
 0002:0000354c       ??_C@_0BI@LEGCJJJC@VarName?5?$CB?$DN?5?$CI?$CIvoid?5?$CK?$CJ?50?$CJ?$AA@ 0002454c     UefiBootManagerLib:BmConsole.obj
 0002:00003564       ??_C@_0BO@LGKGLLEA@ConsoleHandle?5?$CB?$DN?5?$CI?$CIvoid?5?$CK?$CJ?50?$CJ?$AA@ 00024564     UefiBootManagerLib:BmConsole.obj
 0002:00003584       ??_C@_0BM@CGHKLPCB@ConsoleGuid?5?$CB?$DN?5?$CI?$CIvoid?5?$CK?$CJ?50?$CJ?$AA@ 00024584     UefiBootManagerLib:BmConsole.obj
 0002:000035a0       ??_C@_0CC@IEKIILIB@ProtocolInterface?5?$CB?$DN?5?$CI?$CIvoid?5?$CK?$CJ?50@ 000245a0     UefiBootManagerLib:BmConsole.obj
 0002:000035c4       ??_C@_0DC@IFPPFOCH@?$FLBds?$FN?5No?5valid?5console?5instance?5@ 000245c4     UefiBootManagerLib:BmConsole.obj
 0002:000035f8       ??_C@_0DI@BEOLMEHO@q?3?2MdePkg?2Library?2BaseMemoryLibO@ 000245f8     BaseMemoryLibOptDxe:SetMem16Wrapper.obj
 0002:00003630       ??_C@_0CJ@ICJLMHGP@q?3?2MdePkg?2Library?2UefiLib?2UefiNo@ 00024630     UefiLib:UefiNotTiano.obj
 0002:0000365c       ??_C@_0CB@LNNMJOKK@ReadyToBootEvent?5?$CB?$DN?5?$CI?$CIvoid?5?$CK?$CJ?50?$CJ@ 0002465c     UefiLib:UefiNotTiano.obj
 0002:00003680       ??_C@_0CH@LOBIJKLE@EFI1?41?5can?8t?5support?5ReadyToBoot@ 00024680     UefiLib:UefiNotTiano.obj
 0002:000036a8       ??_C@_0CB@OKGFGBHJ@FvDevicePathNode?5?$CB?$DN?5?$CI?$CIvoid?5?$CK?$CJ?50?$CJ@ 000246a8     UefiLib:UefiNotTiano.obj
 0002:000036cc       ??_C@_0CJ@ICOLKBCP@q?3?2MdePkg?2Library?2UefiLib?2UefiLi@ 000246cc     UefiLib:UefiLibPrint.obj
 0002:000036f8       ??_C@_0CD@NJDNMGBE@?$CI?$CIUINTN?$CJ?5Format?5?$CG?50x00000001?$CJ?5?$DN?$DN@ 000246f8     UefiLib:UefiLibPrint.obj
 0002:0000371c       ??_C@_0BI@DIKLKBJC@Console?5?$CB?$DN?5?$CI?$CIvoid?5?$CK?$CJ?50?$CJ?$AA@ 0002471c     UefiLib:UefiLibPrint.obj
 0003:00000000       _gEfiCallerIdGuid          00025000     UiApp:AutoGen.obj
 0003:00000010       _gEfiGlobalVariableGuid    00025010     UiApp:AutoGen.obj
 0003:00000020       _gEfiFileSystemVolumeLabelInfoIdGuid 00025020     UiApp:AutoGen.obj
 0003:00000030       _gEfiFileInfoGuid          00025030     UiApp:AutoGen.obj
 0003:00000040       _gEfiHiiPlatformSetupFormsetGuid 00025040     UiApp:AutoGen.obj
 0003:00000050       _gEfiIfrTianoGuid          00025050     UiApp:AutoGen.obj
 0003:00000060       _gEfiIfrBootMaintenanceGuid 00025060     UiApp:AutoGen.obj
 0003:00000070       _gEfiStatusCodeDataTypeDebugGuid 00025070     UiApp:AutoGen.obj
 0003:00000080       _gEfiStatusCodeSpecificDataGuid 00025080     UiApp:AutoGen.obj
 0003:00000090       _gEfiEventReadyToBootGuid  00025090     UiApp:AutoGen.obj
 0003:000000a0       _gEfiHobListGuid           000250a0     UiApp:AutoGen.obj
 0003:000000b0       _gEfiGenericVariableGuid   000250b0     UiApp:AutoGen.obj
 0003:000000c0       _gEfiDxeServicesTableGuid  000250c0     UiApp:AutoGen.obj
 0003:000000d0       _gEdkiiStatusCodeDataTypeVariableGuid 000250d0     UiApp:AutoGen.obj
 0003:000000e0       _gEfiDiskInfoAhciInterfaceGuid 000250e0     UiApp:AutoGen.obj
 0003:000000f0       _gEfiDiskInfoIdeInterfaceGuid 000250f0     UiApp:AutoGen.obj
 0003:00000100       _gEfiDiskInfoScsiInterfaceGuid 00025100     UiApp:AutoGen.obj
 0003:00000110       _gEfiSimpleFileSystemProtocolGuid 00025110     UiApp:AutoGen.obj
 0003:00000120       _gEfiLoadFileProtocolGuid  00025120     UiApp:AutoGen.obj
 0003:00000130       _gEfiSmbiosProtocolGuid    00025130     UiApp:AutoGen.obj
 0003:00000140       _gEfiBlockIoProtocolGuid   00025140     UiApp:AutoGen.obj
 0003:00000150       _gEfiGraphicsOutputProtocolGuid 00025150     UiApp:AutoGen.obj
 0003:00000160       _gEfiSimpleTextInputExProtocolGuid 00025160     UiApp:AutoGen.obj
 0003:00000170       _gEfiHiiConfigAccessProtocolGuid 00025170     UiApp:AutoGen.obj
 0003:00000180       _gEfiFormBrowser2ProtocolGuid 00025180     UiApp:AutoGen.obj
 0003:00000190       _gEfiSerialIoProtocolGuid  00025190     UiApp:AutoGen.obj
 0003:000001a0       _gEfiDevicePathProtocolGuid 000251a0     UiApp:AutoGen.obj
 0003:000001b0       _gEfiPciIoProtocolGuid     000251b0     UiApp:AutoGen.obj
 0003:000001c0       _gEfiDevicePathToTextProtocolGuid 000251c0     UiApp:AutoGen.obj
 0003:000001d0       _gEfiBootLogoProtocolGuid  000251d0     UiApp:AutoGen.obj
 0003:000001e0       _gPcdProtocolGuid          000251e0     UiApp:AutoGen.obj
 0003:000001f0       _gEfiStatusCodeRuntimeProtocolGuid 000251f0     UiApp:AutoGen.obj
 0003:00000200       _gEfiPrint2ProtocolGuid    00025200     UiApp:AutoGen.obj
 0003:00000210       _gEfiDevicePathUtilitiesProtocolGuid 00025210     UiApp:AutoGen.obj
 0003:00000220       _gEfiSimpleTextOutProtocolGuid 00025220     UiApp:AutoGen.obj
 0003:00000230       _gEfiHiiFontProtocolGuid   00025230     UiApp:AutoGen.obj
 0003:00000240       _gEfiComponentNameProtocolGuid 00025240     UiApp:AutoGen.obj
 0003:00000250       _gEfiComponentName2ProtocolGuid 00025250     UiApp:AutoGen.obj
 0003:00000260       _gEfiDebugMaskProtocolGuid 00025260     UiApp:AutoGen.obj
 0003:00000270       _gEfiHiiStringProtocolGuid 00025270     UiApp:AutoGen.obj
 0003:00000280       _gEfiHiiImageProtocolGuid  00025280     UiApp:AutoGen.obj
 0003:00000290       _gEfiHiiDatabaseProtocolGuid 00025290     UiApp:AutoGen.obj
 0003:000002a0       _gEfiHiiConfigRoutingProtocolGuid 000252a0     UiApp:AutoGen.obj
 0003:000002b0       _gEfiFirmwareVolume2ProtocolGuid 000252b0     UiApp:AutoGen.obj
 0003:000002c0       _gEfiLoadedImageProtocolGuid 000252c0     UiApp:AutoGen.obj
 0003:000002d0       _gEfiSimpleTextInProtocolGuid 000252d0     UiApp:AutoGen.obj
 0003:000002e0       _gEfiUsbIoProtocolGuid     000252e0     UiApp:AutoGen.obj
 0003:000002f0       _gEfiDiskInfoProtocolGuid  000252f0     UiApp:AutoGen.obj
 0003:00000300       _gEfiDriverHealthProtocolGuid 00025300     UiApp:AutoGen.obj
 0003:00000310       _mConVarName               00025310     UefiBootManagerLib:BmConsole.obj
 0003:00000328       _mBmHotkeyLock             00025328     UefiBootManagerLib:BmHotkey.obj
 0003:00000334       _mBmHotkeyList             00025334     UefiBootManagerLib:BmHotkey.obj
 0003:0000033c       _mBmHotkeyBootOption       0002533c     UefiBootManagerLib:BmHotkey.obj
 0003:00000374       _mBmUefiPrefix             00025374     UefiBootManagerLib:BmBoot.obj
 0003:00000380       _mBmAcpiLowMemoryBase      00025380     UefiBootManagerLib:BmPerformance.obj
 0003:00000388       _mPlatformBootDescriptionHandlers 00025388     UefiBootManagerLib:BmBoot.obj
 0003:00000390       _mBmHardDriveBootVariableGuid 00025390     UefiBootManagerLib:BmBoot.obj
 0003:000003a0       _mBmAutoCreateBootOptionGuid 000253a0     UefiBootManagerLib:BmBoot.obj
 0003:000003b0       _mBmBootDescriptionHandlers 000253b0     UefiBootManagerLib:BmBoot.obj
 0003:000003bc       _TerminalType              000253bc     UiApp:Data.obj
 0003:000003c6       _mFeaturerSwitch           000253c6     UiApp:FrontPage.obj
 0003:000003c8       _mDebugMaskProtocol        000253c8     DxeDebugPrintErrorLevelLib:DxeDebugPrintErrorLevelLib.obj
 0003:000003d8       _DeviceManagerVfrBin       000253d8     UiApp:DeviceManagerVfr.obj
 0003:00000598       _FEBin                     00025598     UiApp:FE.obj
 0003:00000748       _BmBin                     00025748     UiApp:Bm.obj
 0003:00000d38       _mFlowControlType          00025d38     UiApp:Data.obj
 0003:00000d3c       _mFlowControlValue         00025d3c     UiApp:Data.obj
 0003:00000d44       _FsOptionMenu              00025d44     UiApp:Data.obj
 0003:00000d54       _ConsoleInpMenu            00025d54     UiApp:Data.obj
 0003:00000d64       _ConsoleOutMenu            00025d64     UiApp:Data.obj
 0003:00000d74       _ConsoleErrMenu            00025d74     UiApp:Data.obj
 0003:00000d84       _BootOptionMenu            00025d84     UiApp:Data.obj
 0003:00000d94       _DriverOptionMenu          00025d94     UiApp:Data.obj
 0003:00000da4       _DirectoryMenu             00025da4     UiApp:Data.obj
 0003:00000db4       _DriverMenu                00025db4     UiApp:Data.obj
 0003:00000dc4       _TerminalMenu              00025dc4     UiApp:Data.obj
 0003:00000dd4       _gDeviceManagerPrivate     00025dd4     UiApp:DeviceManager.obj
 0003:00000df0       _BaudRateList              00025df0     UiApp:Data.obj
 0003:00000e88       _DataBitsList              00025e88     UiApp:Data.obj
 0003:00000ea8       _ParityList                00025ea8     UiApp:Data.obj
 0003:00000ed0       _StopBitsList              00025ed0     UiApp:Data.obj
 0003:00000ee8       _TerminalTypeGuid          00025ee8     UiApp:Data.obj
 0003:00000f38       _BootManagerVfrBin         00025f38     UiApp:BootManagerVfr.obj
 0003:00000fd4       _mFontPackageGuid          00025fd4     UiApp:Language.obj
 0003:00000fe4       _EndDevicePath             00025fe4     UiApp:BootMaint.obj
 0003:00000fe8       _mFontBin                  00025fe8     UiApp:Language.obj
 0003:00001d88       _mUiStringPackGuid         00026d88     UiApp:String.obj
 0003:00001d98       _mDeviceManagerGuid        00026d98     UiApp:DeviceManager.obj
 0003:00001da8       _mDeviceManagerMenuItemTable 00026da8     UiApp:DeviceManager.obj
 0003:00001dc0       _mDeviceManagerHiiVendorDevicePath 00026dc0     UiApp:DeviceManager.obj
 0003:00001dd8       _FrontPageVfrBin           00026dd8     UiApp:FrontPageVfr.obj
 0003:00001f34       _mBmmHiiVendorDevicePath   00026f34     UiApp:BootMaint.obj
 0003:00001f4c       _mFeHiiVendorDevicePath    00026f4c     UiApp:BootMaint.obj
 0003:00001f64       _mBootMaintGuid            00026f64     UiApp:BootMaint.obj
 0003:00001f74       _mFileExplorerGuid         00026f74     UiApp:BootMaint.obj
 0003:00001f84       _mBootMaintStorageName     00026f84     UiApp:BootMaint.obj
 0003:00001f94       _mFileExplorerStorageName  00026f94     UiApp:BootMaint.obj
 0003:00001fa4       _mBootManagerGuid          00026fa4     UiApp:BootManager.obj
 0003:00001fb4       _mDeviceTypeStr            00026fb4     UiApp:BootManager.obj
 0003:00001fd4       _mBootManagerHiiVendorDevicePath 00026fd4     UiApp:BootManager.obj
 0003:00001fec       _gBootManagerPrivate       00026fec     UiApp:BootManager.obj
 0003:00002004       _mFrontPageGuid            00027004     UiApp:FrontPage.obj
 0003:00002014       _gFrontPagePrivate         00027014     UiApp:FrontPage.obj
 0003:00002030       _mFrontPageHiiVendorDevicePath 00027030     UiApp:FrontPage.obj
 0003:00002048       __gPcd_BinaryPatch_PcdConOutRow 00027048     UiApp:AutoGen.obj
 0003:0000204c       __gPcd_BinaryPatch_PcdConOutColumn 0002704c     UiApp:AutoGen.obj
 0003:00002050       __gPcd_BinaryPatch_PcdVideoHorizontalResolution 00027050     UiApp:AutoGen.obj
 0003:00002054       __gPcd_BinaryPatch_PcdVideoVerticalResolution 00027054     UiApp:AutoGen.obj
 0003:00002058       __gPcd_BinaryPatch_PcdSetupVideoHorizontalResolution 00027058     UiApp:AutoGen.obj
 0003:0000205c       __gPcd_BinaryPatch_PcdSetupVideoVerticalResolution 0002705c     UiApp:AutoGen.obj
 0003:00002060       _UiAppStrings              00027060     UiApp:AutoGen.obj
 0003:00004fc0       _mBmLoadOptionName         00029fc0     UefiBootManagerLib:BmLoadOption.obj
 0003:00004fcc       _mBmLoadOptionOrderName    00029fcc     UefiBootManagerLib:BmLoadOption.obj
 0003:00004fd8       _mBmHealthStatusText       00029fd8     UefiBootManagerLib:BmDriverHealth.obj
 0003:00005000       _gZeroGuid                 0002a000     UiApp:AutoGen.obj
 0003:00005010       _gConnectAllHappened       0002a010     UiApp:FrontPage.obj
 0003:00005011       _mResetRequired            0002a011     UiApp:FrontPage.obj
 0003:00005012       _mEnterBmm                 0002a012     UiApp:FrontPage.obj
 0003:00005013       _mModeInitialized          0002a013     UiApp:FrontPage.obj
 0003:00005014       _mBootHorizontalResolution 0002a014     UiApp:FrontPage.obj
 0003:00005018       _mBootVerticalResolution   0002a018     UiApp:FrontPage.obj
 0003:0000501c       _mBootTextModeColumn       0002a01c     UiApp:FrontPage.obj
 0003:00005020       _mBootTextModeRow          0002a020     UiApp:FrontPage.obj
 0003:00005024       _mSetupTextModeColumn      0002a024     UiApp:FrontPage.obj
 0003:00005028       _mSetupTextModeRow         0002a028     UiApp:FrontPage.obj
 0003:0000502c       _mSetupHorizontalResolution 0002a02c     UiApp:FrontPage.obj
 0003:00005030       _mSetupVerticalResolution  0002a030     UiApp:FrontPage.obj
 0003:00005034       _mBmmCallbackInfo          0002a034     UiApp:BootMaint.obj
 0003:00005038       _mAllMenuInit              0002a038     UiApp:BootMaint.obj
 0003:00005039       _mEnterFileExplorer        0002a039     UiApp:BootMaint.obj
 0003:0000503a       _mGlobalErrorLevelInitialized 0002a03a     DxeDebugPrintErrorLevelLib:DxeDebugPrintErrorLevelLib.obj
 0003:0000503c       _mStartOpCodeHandle        0002a03c     UiApp:Data.obj
 0003:00005040       _mEndOpCodeHandle          0002a040     UiApp:Data.obj
 0003:00005044       _mStartLabel               0002a044     UiApp:Data.obj
 0003:00005048       _mEndLabel                 0002a048     UiApp:Data.obj
 0003:0000504c       _mPcd                      0002a04c     DxePcdLib:DxePcdLib.obj
 0003:00005050       _mPiPcd                    0002a050     DxePcdLib:DxePcdLib.obj
 0003:00005054       _mPcdInfo                  0002a054     DxePcdLib:DxePcdLib.obj
 0003:00005058       _mPiPcdInfo                0002a058     DxePcdLib:DxePcdLib.obj
 0003:0000505c       _mReportStatusCodeLibStatusCodeProtocol 0002a05c     DxeReportStatusCodeLib:ReportStatusCodeLib.obj
 0003:00005060       _gImageHandle              0002a060     UefiBootServicesTableLib:UefiBootServicesTableLib.obj
 0003:00005064       _gST                       0002a064     UefiBootServicesTableLib:UefiBootServicesTableLib.obj
 0003:00005068       _gBS                       0002a068     UefiBootServicesTableLib:UefiBootServicesTableLib.obj
 0003:0000506c       _mPrint2Protocol           0002a06c     DxePrintLibPrint2Protocol:PrintLib.obj
 0003:00005070       _gRT                       0002a070     UefiRuntimeServicesTableLib:UefiRuntimeServicesTableLib.obj
 0003:00005074       _mHobList                  0002a074     DxeHobLib:HobLib.obj
 0003:00005078       _mDebugPrintErrorLevel     0002a078     DxeDebugPrintErrorLevelLib:DxeDebugPrintErrorLevelLib.obj
 0003:0000507c       _mSystemTable              0002a07c     DxeDebugPrintErrorLevelLib:DxeDebugPrintErrorLevelLib.obj
 0003:00005080       _gHiiFont                  0002a080     UefiHiiServicesLib:UefiHiiServicesLib.obj
 0003:00005084       _gHiiString                0002a084     UefiHiiServicesLib:UefiHiiServicesLib.obj
 0003:00005088       _gHiiImage                 0002a088     UefiHiiServicesLib:UefiHiiServicesLib.obj
 0003:0000508c       _gHiiDatabase              0002a08c     UefiHiiServicesLib:UefiHiiServicesLib.obj
 0003:00005090       _gHiiConfigRouting         0002a090     UefiHiiServicesLib:UefiHiiServicesLib.obj
 0003:00005094       _gDS                       0002a094     DxeServicesTableLib:DxeServicesTableLib.obj
 0003:00005098       _mUefiFormBrowser2         0002a098     UefiHiiLib:HiiLib.obj
 0003:0000509c       _mBmRefreshLegacyBootOption 0002a09c     UefiBootManagerLib:BmBoot.obj
 0003:000050a0       _mBmLegacyBoot             0002a0a0     UefiBootManagerLib:BmBoot.obj
 0003:000050a4       _mBmHotkeyTriggered        0002a0a4     UefiBootManagerLib:BmHotkey.obj
 0003:000050a8       _mBmTxtInExRegistration    0002a0a8     UefiBootManagerLib:BmHotkey.obj
 0003:000050ac       _mDevicePathLibDevicePathUtilities 0002a0ac     UefiDevicePathLibDevicePathProtocol:UefiDevicePathLib.obj
 0003:000050b0       _mDevicePathLibDevicePathToText 0002a0b0     UefiDevicePathLibDevicePathProtocol:UefiDevicePathLib.obj
 0003:000050b4       _DriverOptionStrDepository 0002a0b4     <common>
 0003:000050b8       _FileOptionStrDepository   0002a0b8     <common>
 0003:000050bc       _TerminalStrDepository     0002a0bc     <common>
 0003:000050c0       _ConsoleOptionStrDepository 0002a0c0     <common>
 0003:000050c4       _BootOptionHelpStrDepository 0002a0c4     <common>
 0003:000050c8       _BootOptionStrDepository   0002a0c8     <common>
 0003:000050cc       _DriverOptionHelpStrDepository 0002a0cc     <common>
 0003:000050d0       _gStringPackHandle         0002a0d0     <common>
 0003:000050d4       _mSelectedMacAddrString    0002a0d4     <common>
 0003:000050e0       _mMacDeviceList            0002a0e0     <common>
 0003:000050ec       _mLanguageString           0002a0ec     <common>
 0003:000050f0       _gFormBrowser2             0002a0f0     <common>

 entry point at        0001:00000000

 Static symbols

