 ConPlatformDxe

 Timestamp is 620cbe03 (Wed Feb 16 17:04:03 2022)

 Preferred load address is 00010000

 Start         Length     Name                   Class
 0001:00000000 00001971H .text                   CODE
 0002:00000000 00000938H .rdata                  DATA
 0002:00000938 00000092H .rdata$debug            DATA
 0003:00000000 000001a8H .data                   DATA
 0003:000001a8 00000028H .bss                    DATA
 0004:00000000 00000056H .edata                  DATA

  Address         Publics by Value              Rva+Base       Lib:Object

 0001:00000000       __ModuleEntryPoint         00011000 f   UefiDriverEntryPoint:DriverEntryPoint.obj
 0001:00000031       _ProcessLibraryConstructorList 00011031 f   ConPlatformDxe:AutoGen.obj
 0001:000001bd       _ProcessLibraryDestructorList 000111bd f   ConPlatformDxe:AutoGen.obj
 0001:00000205       _InitializeConPlatform     00011205 f   ConPlatformDxe:ConPlatform.obj
 0001:00000278       _ConPlatformTextInDriverBindingSupported 00011278 f   ConPlatformDxe:ConPlatform.obj
 0001:00000290       _ConPlatformTextOutDriverBindingSupported 00011290 f   ConPlatformDxe:ConPlatform.obj
 0001:000002a8       _ConPlatformDriverBindingSupported 000112a8 f   ConPlatformDxe:ConPlatform.obj
 0001:00000306       _ConPlatformTextInDriverBindingStart 00011306 f   ConPlatformDxe:ConPlatform.obj
 0001:0000040d       _ConPlatformTextOutDriverBindingStart 0001140d f   ConPlatformDxe:ConPlatform.obj
 0001:0000059c       _ConPlatformTextInDriverBindingStop 0001159c f   ConPlatformDxe:ConPlatform.obj
 0001:00000606       _ConPlatformTextOutDriverBindingStop 00011606 f   ConPlatformDxe:ConPlatform.obj
 0001:0000068c       _ConPlatformUnInstallProtocol 0001168c f   ConPlatformDxe:ConPlatform.obj
 0001:000006cb       _IsGopSibling              000116cb f   ConPlatformDxe:ConPlatform.obj
 0001:000007d9       _ConPlatformMatchDevicePaths 000117d9 f   ConPlatformDxe:ConPlatform.obj
 0001:000008a9       _ConPlatformUpdateDeviceVariable 000118a9 f   ConPlatformDxe:ConPlatform.obj
 0001:00000a2a       _IsHotPlugDevice           00011a2a f   ConPlatformDxe:ConPlatform.obj
 0001:00000a7d       _ConPlatformUpdateGopCandidate 00011a7d f   ConPlatformDxe:ConPlatform.obj
 0001:00000b5b       _ConPlatformComponentNameGetDriverName 00011b5b f   ConPlatformDxe:ComponentName.obj
 0001:00000b7f       _ConPlatformComponentNameGetControllerName 00011b7f f   ConPlatformDxe:ComponentName.obj
 0001:00000b85       _DebugPrint                00011b85 f   PeiDxeDebugLibReportStatusCode:DebugLib.obj
 0001:00000cfc       _DebugAssert               00011cfc f   PeiDxeDebugLibReportStatusCode:DebugLib.obj
 0001:00000da0       _CompareMem                00011da0 f   BaseMemoryLibOptDxe:CompareMemWrapper.obj
 0001:00000e32       _CopyMem                   00011e32 f   BaseMemoryLibOptDxe:CopyMemWrapper.obj
 0001:00000e8f       _InternalAllocatePool      00011e8f f   UefiMemoryAllocationLib:MemoryAllocationLib.obj
 0001:00000eb4       _FreePool                  00011eb4 f   UefiMemoryAllocationLib:MemoryAllocationLib.obj
 0001:00000eed       _DevicePathType            00011eed f   UefiDevicePathLibDevicePathProtocol:UefiDevicePathLib.obj
 0001:00000f0b       _DevicePathSubType         00011f0b f   UefiDevicePathLibDevicePathProtocol:UefiDevicePathLib.obj
 0001:00000f2a       _DevicePathNodeLength      00011f2a f   UefiDevicePathLibDevicePathProtocol:UefiDevicePathLib.obj
 0001:00000f66       _NextDevicePathNode        00011f66 f   UefiDevicePathLibDevicePathProtocol:UefiDevicePathLib.obj
 0001:00000f8b       _IsDevicePathEndType       00011f8b f   UefiDevicePathLibDevicePathProtocol:UefiDevicePathLib.obj
 0001:00000fb5       _IsDevicePathEnd           00011fb5 f   UefiDevicePathLibDevicePathProtocol:UefiDevicePathLib.obj
 0001:00000fef       _GetNextDevicePathInstance 00011fef f   UefiDevicePathLibDevicePathProtocol:UefiDevicePathLib.obj
 0001:00001015       _CompareIso639LanguageCode 00012015 f   UefiLib:UefiLib.obj
 0001:00001031       _LookupUnicodeString2      00012031 f   UefiLib:UefiLib.obj
 0001:00001134       _EfiLibInstallDriverBindingComponentName2 00012134 f   UefiLib:UefiDriverModel.obj
 0001:000011bd       _HobLibConstructor         000121bd f   DxeHobLib:HobLib.obj
 0001:0000125b       _GetHobList                0001225b f   DxeHobLib:HobLib.obj
 0001:0000127e       _GetNextHob                0001227e f   DxeHobLib:HobLib.obj
 0001:000012bd       _GetDebugPrintErrorLevel   000122bd f   DxeDebugPrintErrorLevelLib:DxeDebugPrintErrorLevelLib.obj
 0001:0000139e       _GetDebugMask              0001239e f   DxeDebugPrintErrorLevelLib:DxeDebugPrintErrorLevelLib.obj
 0001:000013b7       _SetDebugMask              000123b7 f   DxeDebugPrintErrorLevelLib:DxeDebugPrintErrorLevelLib.obj
 0001:000013c3       _InternalSafeStringNoAsciiStrOverlap 000123c3 f   BaseLib:SafeString.obj
 0001:000013e7       _AsciiStrnLenS             000123e7 f   BaseLib:SafeString.obj
 0001:00001401       _AsciiStrCpyS              00012401 f   BaseLib:SafeString.obj
 0001:000014bc       _AsciiStrLen               000124bc f   BaseLib:String.obj
 0001:00001509       _AsciiStrnCmp              00012509 f   BaseLib:String.obj
 0001:0000159c       _ReadUnaligned24           0001259c f   BaseLib:Unaligned.obj
 0001:000015bc       _ReadUnaligned64           000125bc f   BaseLib:Unaligned.obj
 0001:000015e3       _WriteUnaligned64          000125e3 f   BaseLib:Unaligned.obj
 0001:0000160c       _InternalGetReportStatusCode 0001260c f   DxeReportStatusCodeLib:ReportStatusCodeLib.obj
 0001:00001645       _InternalReportStatusCode  00012645 f   DxeReportStatusCodeLib:ReportStatusCodeLib.obj
 0001:00001677       _ReportStatusCodeEx        00012677 f   DxeReportStatusCodeLib:ReportStatusCodeLib.obj
 0001:000017e8       _CompareGuid               000127e8 f   BaseMemoryLibOptDxe:MemLibGuid.obj
 0001:00001860       _InternalMemCompareMem     00012860 f   BaseMemoryLibOptDxe:CompareMem.obj
 0001:00001880       _InternalMemCopyMem        00012880 f   BaseMemoryLibOptDxe:CopyMem.obj
 0001:000018f0       _InternalMemSetMem         000128f0 f   BaseMemoryLibOptDxe:SetMem.obj
 0001:0000191c       _InternalMemSetMem32       0001291c f   BaseMemoryLibOptDxe:SetMem32.obj
 0001:00001934       _InternalMemSetMem64       00012934 f   BaseMemoryLibOptDxe:SetMem64.obj
 0001:00001954       _InternalMemZeroMem        00012954 f   BaseMemoryLibOptDxe:ZeroMem.obj
 0002:0000001c       ??_C@_0CB@DMEJJJHA@?6ASSERT_EFI_ERROR?5?$CIStatus?5?$DN?5?$CFr?$CJ?6@ 0001301c     UefiDriverEntryPoint:DriverEntryPoint.obj
 0002:00000040       ??_C@_0BE@DCHLEIGN@?$CBEFI_ERROR?5?$CIStatus?$CJ?$AA@ 00013040     UefiDriverEntryPoint:DriverEntryPoint.obj
 0002:00000058       ??_C@_0HB@DCOGADOK@q?3?2Build?2NT32IA32?2DEBUG_DEVTLS?2I@ 00013058     ConPlatformDxe:AutoGen.obj
 0002:000000cc       __gUefiDriverRevision      000130cc     ConPlatformDxe:AutoGen.obj
 0002:000000d0       ??_C@_0DP@MONGLMOG@q?3?2MdeModulePkg?2Universal?2Consol@ 000130d0     ConPlatformDxe:ConPlatform.obj
 0002:00000110       ??_C@_1M@NFPEGKHA@?$AAC?$AAo?$AAn?$AAI?$AAn?$AA?$AA@ 00013110     ConPlatformDxe:ConPlatform.obj
 0002:0000011c       ??_C@_1BC@OBFMLJLI@?$AAC?$AAo?$AAn?$AAI?$AAn?$AAD?$AAe?$AAv?$AA?$AA@ 0001311c     ConPlatformDxe:ConPlatform.obj
 0002:00000130       ??_C@_1O@MJHLOIFA@?$AAC?$AAo?$AAn?$AAO?$AAu?$AAt?$AA?$AA@ 00013130     ConPlatformDxe:ConPlatform.obj
 0002:00000140       ??_C@_1O@JOJMCOJC@?$AAE?$AAr?$AAr?$AAO?$AAu?$AAt?$AA?$AA@ 00013140     ConPlatformDxe:ConPlatform.obj
 0002:00000150       ??_C@_1BE@INNAKDAF@?$AAC?$AAo?$AAn?$AAO?$AAu?$AAt?$AAD?$AAe?$AAv?$AA?$AA@ 00013150     ConPlatformDxe:ConPlatform.obj
 0002:00000164       ??_C@_1BE@JFPOEAHF@?$AAE?$AAr?$AAr?$AAO?$AAu?$AAt?$AAD?$AAe?$AAv?$AA?$AA@ 00013164     ConPlatformDxe:ConPlatform.obj
 0002:00000178       ??_C@_1EG@IAMKDAMC@?$AAP?$AAl?$AAa?$AAt?$AAf?$AAo?$AAr?$AAm?$AA?5?$AAC?$AAo?$AAn?$AAs?$AAo?$AAl?$AAe?$AA?5?$AAM?$AAa?$AAn?$AAa?$AAg?$AAe?$AAm?$AAe?$AAn?$AAt?$AA?5?$AAD?$AAr?$AAi?$AAv@ 00013178     ConPlatformDxe:ComponentName.obj
 0002:000001c0       ??_C@_06DALJLGPG@eng?$DLen?$AA@ 000131c0     ConPlatformDxe:ComponentName.obj
 0002:000001c8       ??_C@_02LFNMGJAP@en?$AA@   000131c8     ConPlatformDxe:ComponentName.obj
 0002:000001cc       ??_C@_03LKLGDMJI@eng?$AA@  000131cc     ConPlatformDxe:ComponentName.obj
 0002:000001d0       ??_C@_0BH@LKMBFCBF@Format?5?$CB?$DN?5?$CI?$CIvoid?5?$CK?$CJ?50?$CJ?$AA@ 000131d0     PeiDxeDebugLibReportStatusCode:DebugLib.obj
 0002:000001e8       ??_C@_0EN@CNOKPIHJ@q?3?2IntelFrameworkModulePkg?2Libra@ 000131e8     PeiDxeDebugLibReportStatusCode:DebugLib.obj
 0002:00000238       ??_C@_0CI@HIINONDG@?$CICHAR8?5?$CK?$CJBaseListMarker?5?$DM?$DN?5Forma@ 00013238     PeiDxeDebugLibReportStatusCode:DebugLib.obj
 0002:00000260       ??_C@_0BH@IACGKAP@Buffer?5?$CB?$DN?5?$CI?$CIvoid?5?$CK?$CJ?50?$CJ?$AA@ 00013260     PeiDxeDebugLibReportStatusCode:DebugLib.obj
 0002:00000278       ??_C@_0CC@JOEHDGKB@DestinationBuffer?5?$CB?$DN?5?$CI?$CIvoid?5?$CK?$CJ?50@ 00013278     BaseMemoryLibOptDxe:CompareMemWrapper.obj
 0002:0000029c       ??_C@_0DK@BHHGEGGL@q?3?2MdePkg?2Library?2BaseMemoryLibO@ 0001329c     BaseMemoryLibOptDxe:CompareMemWrapper.obj
 0002:000002d8       ??_C@_0BN@MDMCNBCC@SourceBuffer?5?$CB?$DN?5?$CI?$CIvoid?5?$CK?$CJ?50?$CJ?$AA@ 000132d8     BaseMemoryLibOptDxe:CompareMemWrapper.obj
 0002:000002f8       ??_C@_0DI@PHOMHDKH@?$CILength?5?9?51?$CJ?5?$DM?$DN?5?$CI0xFFFFFFFF?5?9?5?$CIU@ 000132f8     BaseMemoryLibOptDxe:CompareMemWrapper.obj
 0002:00000330       ??_C@_0DD@DCDOHCDJ@?$CILength?5?9?51?$CJ?5?$DM?$DN?5?$CI0xFFFFFFFF?5?9?5?$CIU@ 00013330     BaseMemoryLibOptDxe:CompareMemWrapper.obj
 0002:00000364       ??_C@_0DH@PIHDLFLO@q?3?2MdePkg?2Library?2BaseMemoryLibO@ 00013364     BaseMemoryLibOptDxe:CopyMemWrapper.obj
 0002:0000039c       ??_C@_0BN@COECPDCC@gImageHandle?5?$CB?$DN?5?$CI?$CIvoid?5?$CK?$CJ?50?$CJ?$AA@ 0001339c     UefiBootServicesTableLib:UefiBootServicesTableLib.obj
 0002:000003c0       ??_C@_0EG@IHBEIGJL@q?3?2MdePkg?2Library?2UefiBootServic@ 000133c0     UefiBootServicesTableLib:UefiBootServicesTableLib.obj
 0002:00000408       ??_C@_0BE@DGNHAHIL@gST?5?$CB?$DN?5?$CI?$CIvoid?5?$CK?$CJ?50?$CJ?$AA@ 00013408     UefiBootServicesTableLib:UefiBootServicesTableLib.obj
 0002:0000041c       ??_C@_0BE@BDFJLGLN@gBS?5?$CB?$DN?5?$CI?$CIvoid?5?$CK?$CJ?50?$CJ?$AA@ 0001341c     UefiBootServicesTableLib:UefiBootServicesTableLib.obj
 0002:00000430       ??_C@_0EA@JCDEKIGH@q?3?2MdePkg?2Library?2UefiMemoryAllo@ 00013430     UefiMemoryAllocationLib:MemoryAllocationLib.obj
 0002:00000470       ??_C@_0BE@OBDFIHND@gRT?5?$CB?$DN?5?$CI?$CIvoid?5?$CK?$CJ?50?$CJ?$AA@ 00013470     UefiRuntimeServicesTableLib:UefiRuntimeServicesTableLib.obj
 0002:00000488       ??_C@_0EM@DLKNJEFG@q?3?2MdePkg?2Library?2UefiRuntimeSer@ 00013488     UefiRuntimeServicesTableLib:UefiRuntimeServicesTableLib.obj
 0002:000004d8       ??_C@_0EK@PAKOFLDC@q?3?2MdePkg?2Library?2UefiDevicePath@ 000134d8     UefiDevicePathLibDevicePathProtocol:UefiDevicePathLib.obj
 0002:00000524       ??_C@_0DC@CNNBPJA@mDevicePathLibDevicePathUtilitie@ 00013524     UefiDevicePathLibDevicePathProtocol:UefiDevicePathLib.obj
 0002:00000558       ??_C@_0BF@CBLMFKOC@Node?5?$CB?$DN?5?$CI?$CIvoid?5?$CK?$CJ?50?$CJ?$AA@ 00013558     UefiDevicePathLibDevicePathProtocol:UefiDevicePathLib.obj
 0002:00000570       ??_C@_0BF@MBJFHGBE@Size?5?$CB?$DN?5?$CI?$CIvoid?5?$CK?$CJ?50?$CJ?$AA@ 00013570     UefiDevicePathLibDevicePathProtocol:UefiDevicePathLib.obj
 0002:00000588       ??_C@_0BO@MHFMIIAE@DriverBinding?5?$CB?$DN?5?$CI?$CIvoid?5?$CK?$CJ?50?$CJ?$AA@ 00013588     UefiLib:UefiDriverModel.obj
 0002:000005a8       ??_C@_0CM@BJEOHNPB@q?3?2MdePkg?2Library?2UefiLib?2UefiDr@ 000135a8     UefiLib:UefiDriverModel.obj
 0002:000005d4       ??_C@_0CF@EEAPHGAM@q?3?2MdePkg?2Library?2DxeHobLib?2HobL@ 000135d4     DxeHobLib:HobLib.obj
 0002:000005fc       ??_C@_0BJ@OBFMLLDO@mHobList?5?$CB?$DN?5?$CI?$CIvoid?5?$CK?$CJ?50?$CJ?$AA@ 000135fc     DxeHobLib:HobLib.obj
 0002:00000618       ??_C@_0BJ@NOLLDKJB@HobStart?5?$CB?$DN?5?$CI?$CIvoid?5?$CK?$CJ?50?$CJ?$AA@ 00013618     DxeHobLib:HobLib.obj
 0002:00000634       ??_C@_1BC@DPOIABCP@?$AAE?$AAF?$AAI?$AAD?$AAe?$AAb?$AAu?$AAg?$AA?$AA@ 00013634     DxeDebugPrintErrorLevelLib:DxeDebugPrintErrorLevelLib.obj
 0002:00000648       ??_C@_0CH@OOIJJKEI@q?3?2MdePkg?2Library?2BaseLib?2SafeSt@ 00013648     BaseLib:SafeString.obj
 0002:00000670       ??_C@_0BO@ECNIOIHG@?$CIDestination?5?$CB?$DN?5?$CI?$CIvoid?5?$CK?$CJ?50?$CJ?$CJ?$AA@ 00013670     BaseLib:SafeString.obj
 0002:00000690       ??_C@_0BJ@EAEEJIP@?$CISource?5?$CB?$DN?5?$CI?$CIvoid?5?$CK?$CJ?50?$CJ?$CJ?$AA@ 00013690     BaseLib:SafeString.obj
 0002:000006ac       ??_C@_0BG@EEGIIOKH@?$CIDestMax?5?$DO?5SourceLen?$CJ?$AA@ 000136ac     BaseLib:SafeString.obj
 0002:000006c8       ??_C@_0FL@CDANCHFO@InternalSafeStringNoAsciiStrOver@ 000136c8     BaseLib:SafeString.obj
 0002:00000724       ??_C@_0CD@OOJADBME@q?3?2MdePkg?2Library?2BaseLib?2String@ 00013724     BaseLib:String.obj
 0002:00000748       ??_C@_0BH@MAAHKCPC@String?5?$CB?$DN?5?$CI?$CIvoid?5?$CK?$CJ?50?$CJ?$AA@ 00013748     BaseLib:String.obj
 0002:00000760       ??_C@_0DJ@JJHGIFMP@Length?5?$DM?$DN?5_gPcd_FixedAtBuild_Pcd@ 00013760     BaseLib:String.obj
 0002:0000079c       ??_C@_0DI@MDIKFADO@Length?5?$DM?5_gPcd_FixedAtBuild_PcdM@ 0001379c     BaseLib:String.obj
 0002:000007d4       ??_C@_0BL@IKFBNFIL@AsciiStrSize?5?$CIFirstString?$CJ?$AA@ 000137d4     BaseLib:String.obj
 0002:000007f0       ??_C@_0BM@EDNOKLLE@AsciiStrSize?5?$CISecondString?$CJ?$AA@ 000137f0     BaseLib:String.obj
 0002:0000080c       ??_C@_0CG@MHAECJIA@q?3?2MdePkg?2Library?2BaseLib?2Unalig@ 0001380c     BaseLib:Unaligned.obj
 0002:00000838       ??_C@_0EF@PCDGLKLI@q?3?2MdeModulePkg?2Library?2DxeRepor@ 00013838     DxeReportStatusCodeLib:ReportStatusCodeLib.obj
 0002:00000880       ??_C@_0DN@HHIHPHHB@?$CB?$CI?$CIExtendedData?5?$DN?$DN?5?$CI?$CIvoid?5?$CK?$CJ?50?$CJ?$CJ@ 00013880     DxeReportStatusCodeLib:ReportStatusCodeLib.obj
 0002:000008c0       ??_C@_0DN@BBBIFINB@?$CB?$CI?$CIExtendedData?5?$CB?$DN?5?$CI?$CIvoid?5?$CK?$CJ?50?$CJ?$CJ@ 000138c0     DxeReportStatusCodeLib:ReportStatusCodeLib.obj
 0002:00000900       ??_C@_0DI@MIEIGAOH@Status?5code?5extended?5data?5is?5too@ 00013900     DxeReportStatusCodeLib:ReportStatusCodeLib.obj
 0003:00000000       _gEfiCallerIdGuid          00014000     ConPlatformDxe:AutoGen.obj
 0003:00000010       _gEfiGlobalVariableGuid    00014010     ConPlatformDxe:AutoGen.obj
 0003:00000020       _gEfiStandardErrorDeviceGuid 00014020     ConPlatformDxe:AutoGen.obj
 0003:00000030       _gEfiConsoleOutDeviceGuid  00014030     ConPlatformDxe:AutoGen.obj
 0003:00000040       _gEfiConsoleInDeviceGuid   00014040     ConPlatformDxe:AutoGen.obj
 0003:00000050       _gEfiStatusCodeSpecificDataGuid 00014050     ConPlatformDxe:AutoGen.obj
 0003:00000060       _gEfiStatusCodeDataTypeDebugGuid 00014060     ConPlatformDxe:AutoGen.obj
 0003:00000070       _gEfiHobListGuid           00014070     ConPlatformDxe:AutoGen.obj
 0003:00000080       _gEfiGenericVariableGuid   00014080     ConPlatformDxe:AutoGen.obj
 0003:00000090       _gEfiDevicePathProtocolGuid 00014090     ConPlatformDxe:AutoGen.obj
 0003:000000a0       _gEfiSimpleTextInProtocolGuid 000140a0     ConPlatformDxe:AutoGen.obj
 0003:000000b0       _gEfiSimpleTextOutProtocolGuid 000140b0     ConPlatformDxe:AutoGen.obj
 0003:000000c0       _gEfiPciIoProtocolGuid     000140c0     ConPlatformDxe:AutoGen.obj
 0003:000000d0       _gEfiGraphicsOutputProtocolGuid 000140d0     ConPlatformDxe:AutoGen.obj
 0003:000000e0       _gEfiStatusCodeRuntimeProtocolGuid 000140e0     ConPlatformDxe:AutoGen.obj
 0003:000000f0       _gEfiDevicePathUtilitiesProtocolGuid 000140f0     ConPlatformDxe:AutoGen.obj
 0003:00000100       _gEfiDriverBindingProtocolGuid 00014100     ConPlatformDxe:AutoGen.obj
 0003:00000110       _gEfiComponentNameProtocolGuid 00014110     ConPlatformDxe:AutoGen.obj
 0003:00000120       _gEfiComponentName2ProtocolGuid 00014120     ConPlatformDxe:AutoGen.obj
 0003:00000130       _gEfiDebugMaskProtocolGuid 00014130     ConPlatformDxe:AutoGen.obj
 0003:00000140       _mDebugMaskProtocol        00014140     DxeDebugPrintErrorLevelLib:DxeDebugPrintErrorLevelLib.obj
 0003:00000150       _gConPlatformTextInDriverBinding 00014150     ConPlatformDxe:ConPlatform.obj
 0003:00000168       _gConPlatformTextOutDriverBinding 00014168     ConPlatformDxe:ConPlatform.obj
 0003:00000180       _gConPlatformComponentName 00014180     ConPlatformDxe:ComponentName.obj
 0003:0000018c       _gConPlatformComponentName2 0001418c     ConPlatformDxe:ComponentName.obj
 0003:00000198       _mConPlatformDriverNameTable 00014198     ConPlatformDxe:ComponentName.obj
 0003:000001a8       _gImageHandle              000141a8     UefiBootServicesTableLib:UefiBootServicesTableLib.obj
 0003:000001ac       _gST                       000141ac     UefiBootServicesTableLib:UefiBootServicesTableLib.obj
 0003:000001b0       _gBS                       000141b0     UefiBootServicesTableLib:UefiBootServicesTableLib.obj
 0003:000001b4       _gRT                       000141b4     UefiRuntimeServicesTableLib:UefiRuntimeServicesTableLib.obj
 0003:000001b8       _mHobList                  000141b8     DxeHobLib:HobLib.obj
 0003:000001bc       _mGlobalErrorLevelInitialized 000141bc     DxeDebugPrintErrorLevelLib:DxeDebugPrintErrorLevelLib.obj
 0003:000001c0       _mDebugPrintErrorLevel     000141c0     DxeDebugPrintErrorLevelLib:DxeDebugPrintErrorLevelLib.obj
 0003:000001c4       _mSystemTable              000141c4     DxeDebugPrintErrorLevelLib:DxeDebugPrintErrorLevelLib.obj
 0003:000001c8       _mReportStatusCodeLibStatusCodeProtocol 000141c8     DxeReportStatusCodeLib:ReportStatusCodeLib.obj
 0003:000001cc       _mDevicePathLibDevicePathUtilities 000141cc     UefiDevicePathLibDevicePathProtocol:UefiDevicePathLib.obj

 entry point at        0001:00000000

 Static symbols

